(dp1
S'index'
p2
(dp3
V593
p4
I3588
sV4026
p5
I3365
sV3724
p6
I3029
sV4024
p7
I3363
sV4025
p8
I3364
sV4022
p9
I3361
sV4023
p10
I3362
sV4020
p11
I3359
sV3725
p12
I3030
sV3798
p13
I3110
sV643
p14
I3644
sV4028
p15
I3367
sV4029
p16
I3368
sV592
p17
I3587
sV344
p18
I2713
sV345
p19
I2724
sV346
p20
I2735
sV347
p21
I2746
sV340
p22
I2669
sV341
p23
I2680
sV342
p24
I2691
sV343
p25
I2702
sV2918
p26
I2133
sV3996
p27
I3330
sV3995
p28
I3329
sV3994
p29
I3328
sV348
p30
I2757
sV349
p31
I2768
sV3991
p32
I3325
sV3990
p33
I3324
sV3530
p34
I2814
sV2919
p35
I2134
sV512
p36
I3499
sV594
p37
I3589
sV2318
p38
I1467
sV2319
p39
I1468
sV2316
p40
I1465
sV2317
p41
I1466
sV2314
p42
I1463
sV2315
p43
I1464
sV2312
p44
I1461
sV2313
p45
I1462
sV2310
p46
I1459
sV2311
p47
I1460
sV298
p48
I2201
sV299
p49
I2212
sV296
p50
I2179
sV297
p51
I2190
sV294
p52
I2157
sV295
p53
I2168
sV292
p54
I2135
sV293
p55
I2146
sV290
p56
I2113
sV291
p57
I2124
sV3773
p58
I3083
sV3772
p59
I3082
sV3771
p60
I3081
sV3770
p61
I3080
sV3777
p62
I3087
sV3776
p63
I3086
sV3775
p64
I3085
sV3774
p65
I3084
sV3779
p66
I3089
sV3778
p67
I3088
sV270
p68
I1891
sV271
p69
I1902
sV272
p70
I1913
sV273
p71
I1924
sV274
p72
I1935
sV275
p73
I1946
sV276
p74
I1957
sV277
p75
I1968
sV278
p76
I1979
sV279
p77
I1990
sV738
p78
I3749
sV3211
p79
I2460
sV58
p80
I3573
sV581
p81
I3575
sV2268
p82
I1411
sV2269
p83
I1412
sV2262
p84
I1405
sV2263
p85
I1406
sV2260
p86
I1403
sV2261
p87
I1404
sV2266
p88
I1409
sV2267
p89
I1410
sV2264
p90
I1407
sV2265
p91
I1408
sV2442
p92
I1605
sV2443
p93
I1606
sV2440
p94
I1603
sV2441
p95
I1604
sV2446
p96
I1609
sV2447
p97
I1610
sV2444
p98
I1607
sV2445
p99
I1608
sV2448
p100
I1611
sV2449
p101
I1612
sV108
p102
I91
sV109
p103
I102
sV102
p104
I25
sV103
p105
I36
sV100
p106
I3
sV101
p107
I14
sV106
p108
I69
sV107
p109
I80
sV104
p110
I47
sV105
p111
I58
sV2046
p112
I1165
sV2047
p113
I1166
sV2044
p114
I1163
sV2045
p115
I1164
sV2042
p116
I1161
sV2043
p117
I1162
sV2040
p118
I1159
sV2041
p119
I1160
sV2048
p120
I1167
sV2049
p121
I1168
sV3150
p122
I2392
sV3155
p123
I2397
sV3154
p124
I2396
sV3238
p125
I2489
sV2836
p126
I2042
sV3159
p127
I2401
sV752
p128
I3765
sV541
p129
I3531
sV3519
p130
I2801
sV3158
p131
I2400
sV3513
p132
I2795
sV3512
p133
I2794
sV3511
p134
I2793
sV3510
p135
I2792
sV3517
p136
I2799
sV3239
p137
I2490
sV3515
p138
I2797
sV3514
p139
I2796
sV2688
p140
I1877
sV2689
p141
I1878
sV2684
p142
I1873
sV2685
p143
I1874
sV2686
p144
I1875
sV2687
p145
I1876
sV2680
p146
I1869
sV2681
p147
I1870
sV2682
p148
I1871
sV2683
p149
I1872
sV3391
p150
I2659
sV3999
p151
I3333
sV3390
p152
I2658
sV3998
p153
I3332
sV3393
p154
I2661
sV99
p155
I4028
sV3997
p156
I3331
sV3019
p157
I2246
sV91
p158
I3940
sV3395
p159
I2663
sV93
p160
I3962
sV92
p161
I3951
sV95
p162
I3984
sV94
p163
I3973
sV97
p164
I4006
sV3394
p165
I2662
sV1991
p166
I1103
sV1622
p167
I694
sV1621
p168
I693
sV1620
p169
I692
sV1627
p170
I699
sV1994
p171
I1106
sV1625
p172
I697
sV1624
p173
I696
sV1999
p174
I1111
sV1998
p175
I1110
sV1629
p176
I701
sV1628
p177
I700
sV3209
p178
I2457
sV3208
p179
I2456
sV3013
p180
I2240
sV2860
p181
I2069
sV2861
p182
I2070
sV2862
p183
I2071
sV2863
p184
I2072
sV2864
p185
I2073
sV2865
p186
I2074
sV2866
p187
I2075
sV2867
p188
I2076
sV2868
p189
I2077
sV2869
p190
I2078
sV557
p191
I3548
sV556
p192
I3547
sV551
p193
I3542
sV550
p194
I3541
sV553
p195
I3544
sV552
p196
I3543
sV3015
p197
I2242
sV1199
p198
I223
sV1198
p199
I222
sV3348
p200
I2611
sV3349
p201
I2612
sV1191
p202
I215
sV1190
p203
I214
sV1193
p204
I217
sV1192
p205
I216
sV1195
p206
I219
sV1194
p207
I218
sV1197
p208
I221
sV1196
p209
I220
sV873
p210
I3899
sV1759
p211
I845
sV1758
p212
I844
sV1757
p213
I843
sV1756
p214
I842
sV1755
p215
I841
sV1754
p216
I840
sV1753
p217
I839
sV1752
p218
I838
sV1751
p219
I837
sV1750
p220
I836
sV1177
p221
I199
sV1176
p222
I198
sV1175
p223
I197
sV1174
p224
I196
sV1173
p225
I195
sV1172
p226
I194
sV1171
p227
I193
sV1170
p228
I192
sV1179
p229
I201
sV1178
p230
I200
sV511
p231
I3498
sV754
p232
I3767
sV2964
p233
I2184
sV510
p234
I3497
sV513
p235
I3500
sV644
p236
I3645
sV1285
p237
I319
sV1284
p238
I318
sV1287
p239
I321
sV1286
p240
I320
sV1281
p241
I315
sV1280
p242
I314
sV1283
p243
I317
sV1282
p244
I316
sV515
p245
I3502
sV879
p246
I3905
sV1289
p247
I323
sV1288
p248
I322
sV3668
p249
I2966
sV876
p250
I3902
sV1579
p251
I645
sV1578
p252
I644
sV689
p253
I3694
sV517
p254
I3504
sV877
p255
I3903
sV1573
p256
I639
sV1572
p257
I638
sV1571
p258
I637
sV1570
p259
I636
sV1577
p260
I643
sV1576
p261
I642
sV1575
p262
I641
sV1574
p263
I640
sV662
p264
I3665
sV458
p265
I3438
sV875
p266
I3901
sV819
p267
I3839
sV459
p268
I3439
sV872
p269
I3898
sV621
p270
I3620
sV3435
p271
I2708
sV620
p272
I3619
sV870
p273
I3896
sV627
p274
I3626
sV871
p275
I3897
sV626
p276
I3625
sV2741
p277
I1937
sV625
p278
I3624
sV2740
p279
I1936
sV624
p280
I3623
sV759
p281
I3772
sV2743
p282
I1939
sV1371
p283
I415
sV1370
p284
I414
sV1373
p285
I417
sV1372
p286
I416
sV1375
p287
I419
sV1374
p288
I418
sV1377
p289
I421
sV1376
p290
I420
sV1379
p291
I423
sV1378
p292
I422
sV452
p293
I3432
sV409
p294
I3384
sV2744
p295
I1940
sV3834
p296
I3151
sV3835
p297
I3152
sV3836
p298
I3153
sV3837
p299
I3154
sV3830
p300
I3147
sV2747
p301
I1943
sV3832
p302
I3149
sV3833
p303
I3150
sV454
p304
I3434
sV758
p305
I3771
sV2746
p306
I1942
sV3838
p307
I3155
sV3839
p308
I3156
sV455
p309
I3435
sV4031
p310
I3371
sV3207
p311
I2455
sV4033
p312
I3373
sV4032
p313
I3372
sV4035
p314
I3375
sV4034
p315
I3374
sV4037
p316
I3377
sV2748
p317
I1944
sV4038
p318
I3378
sV457
p319
I3437
sV3206
p320
I2454
sV379
p321
I3101
sV378
p322
I3090
sV371
p323
I3013
sV370
p324
I3002
sV373
p325
I3035
sV372
p326
I3024
sV375
p327
I3057
sV374
p328
I3046
sV377
p329
I3079
sV376
p330
I3068
sV403
p331
I3369
sV3093
p332
I2328
sV3205
p333
I2453
sV393
p334
I3257
sV392
p335
I3246
sV391
p336
I3235
sV390
p337
I3224
sV397
p338
I3301
sV396
p339
I3290
sV395
p340
I3279
sV394
p341
I3268
sV399
p342
I3323
sV398
p343
I3312
sV3593
p344
I2883
sV895
p345
I3923
sV2309
p346
I1457
sV2308
p347
I1456
sV2301
p348
I1449
sV2300
p349
I1448
sV2303
p350
I1451
sV2302
p351
I1450
sV2305
p352
I1453
sV2304
p353
I1452
sV2307
p354
I1455
sV2306
p355
I1454
sV3592
p356
I2882
sV653
p357
I3655
sV3748
p358
I3055
sV3749
p359
I3056
sV3746
p360
I3053
sV3203
p361
I2451
sV3744
p362
I3051
sV3745
p363
I3052
sV3742
p364
I3049
sV3743
p365
I3050
sV3740
p366
I3047
sV3741
p367
I3048
sV245
p368
I1613
sV244
p369
I1602
sV247
p370
I1635
sV246
p371
I1624
sV241
p372
I1569
sV240
p373
I1558
sV243
p374
I1591
sV242
p375
I1580
sV3591
p376
I2881
sV249
p377
I1657
sV248
p378
I1646
sV2275
p379
I1419
sV2274
p380
I1418
sV2277
p381
I1421
sV2276
p382
I1420
sV2271
p383
I1415
sV2270
p384
I1414
sV2273
p385
I1417
sV2272
p386
I1416
sV2279
p387
I1423
sV2278
p388
I1422
sV972
p389
I4009
sV2459
p390
I1623
sV2458
p391
I1622
sV723
p392
I3733
sV2455
p393
I1619
sV2454
p394
I1618
sV2457
p395
I1621
sV2456
p396
I1620
sV2451
p397
I1615
sV2450
p398
I1614
sV2453
p399
I1617
sV2452
p400
I1616
sV179
p401
I879
sV178
p402
I868
sV177
p403
I857
sV176
p404
I846
sV175
p405
I835
sV174
p406
I824
sV173
p407
I813
sV172
p408
I802
sV171
p409
I791
sV170
p410
I780
sV2051
p411
I1171
sV2050
p412
I1170
sV2053
p413
I1173
sV2052
p414
I1172
sV2055
p415
I1175
sV2054
p416
I1174
sV2057
p417
I1177
sV2056
p418
I1176
sV2059
p419
I1179
sV2058
p420
I1178
sV3692
p421
I2993
sV3693
p422
I2994
sV3694
p423
I2995
sV3695
p424
I2996
sV3696
p425
I2997
sV3697
p426
I2998
sV970
p427
I4007
sV655
p428
I3657
sV3089
p429
I2323
sV3088
p430
I2322
sV3226
p431
I2476
sV651
p432
I3653
sV3526
p433
I2809
sV3527
p434
I2810
sV3524
p435
I2807
sV3525
p436
I2808
sV3522
p437
I2805
sV3523
p438
I2806
sV3520
p439
I2803
sV3521
p440
I2804
sV3087
p441
I2321
sV3528
p442
I2811
sV3529
p443
I2812
sV3086
p444
I2320
sV338
p445
I2646
sV3543
p446
I2828
sV225
p447
I1391
sV1601
p448
I671
sV658
p449
I3660
sV2699
p450
I1889
sV1600
p451
I670
sV2697
p452
I1887
sV2696
p453
I1886
sV2695
p454
I1885
sV2694
p455
I1884
sV2693
p456
I1883
sV1603
p457
I673
sV2691
p458
I1881
sV2690
p459
I1880
sV1602
p460
I672
sV1973
p461
I1083
sV98
p462
I4017
sV1604
p463
I674
sV1607
p464
I677
sV1606
p465
I676
sV3232
p466
I2483
sV3233
p467
I2484
sV3230
p468
I2481
sV3231
p469
I2482
sV1968
p470
I1077
sV1969
p471
I1078
sV1618
p472
I689
sV1619
p473
I690
sV1616
p474
I687
sV1617
p475
I688
sV1614
p476
I685
sV1615
p477
I686
sV1960
p478
I1069
sV1961
p479
I1070
sV1610
p480
I681
sV1611
p481
I682
sV3650
p482
I2947
sV714
p483
I3723
sV2873
p484
I2083
sV2872
p485
I2082
sV2871
p486
I2081
sV2870
p487
I2080
sV2877
p488
I2087
sV2876
p489
I2086
sV2875
p490
I2085
sV2542
p491
I1716
sV2879
p492
I2089
sV2878
p493
I2088
sV3355
p494
I2619
sV3354
p495
I2618
sV3357
p496
I2621
sV3356
p497
I2620
sV3351
p498
I2615
sV3350
p499
I2614
sV3353
p500
I2617
sV3352
p501
I2616
sV3359
p502
I2623
sV3358
p503
I2622
sV3781
p504
I3092
sV2544
p505
I1718
sV1768
p506
I855
sV1769
p507
I856
sV1762
p508
I849
sV1763
p509
I850
sV1760
p510
I847
sV1761
p511
I848
sV1766
p512
I853
sV1767
p513
I854
sV1764
p514
I851
sV1765
p515
I852
sV1142
p516
I161
sV1143
p517
I162
sV1140
p518
I159
sV1141
p519
I160
sV1146
p520
I165
sV1147
p521
I166
sV1144
p522
I163
sV1145
p523
I164
sV1148
p524
I167
sV1149
p525
I168
sV768
p526
I3782
sV2966
p527
I2186
sV690
p528
I3696
sV336
p529
I2624
sV3787
p530
I3098
sV1546
p531
I609
sV1547
p532
I610
sV1544
p533
I607
sV1545
p534
I608
sV1542
p535
I605
sV1543
p536
I606
sV1540
p537
I603
sV1541
p538
I604
sV698
p539
I3704
sV699
p540
I3705
sV1548
p541
I611
sV1549
p542
I612
sV542
p543
I3532
sV543
p544
I3533
sV540
p545
I3530
sV2382
p546
I1538
sV546
p547
I3536
sV547
p548
I3537
sV544
p549
I3534
sV1781
p550
I870
sV3784
p551
I3095
sV548
p552
I3538
sV549
p553
I3539
sV760
p554
I3774
sV3885
p555
I3207
sV761
p556
I3775
sV400
p557
I3336
sV2969
p558
I2189
sV2968
p559
I2188
sV764
p560
I3778
sV2388
p561
I1544
sV765
p562
I3779
sV9
I3928
sV414
p563
I3390
sV415
p564
I3391
sV416
p565
I3392
sV417
p566
I3393
sV1388
p567
I433
sV1389
p568
I434
sV412
p569
I3388
sV413
p570
I3389
sV1384
p571
I429
sV1385
p572
I430
sV1386
p573
I431
sV1387
p574
I432
sV1380
p575
I425
sV1381
p576
I426
sV1382
p577
I427
sV1383
p578
I428
sV3827
p579
I3143
sV3826
p580
I3142
sV3825
p581
I3141
sV3824
p582
I3140
sV3823
p583
I3139
sV3822
p584
I3138
sV3821
p585
I3137
sV3820
p586
I3136
sV3582
p587
I2871
sV3829
p588
I3145
sV3828
p589
I3144
sV3583
p590
I2872
sV1254
p591
I285
sV3585
p592
I2874
sV681
p593
I3686
sV3042
p594
I2272
sV3587
p595
I2876
sV3588
p596
I2877
sV368
p597
I2979
sV3589
p598
I2878
sV366
p599
I2957
sV367
p600
I2968
sV364
p601
I2935
sV365
p602
I2946
sV362
p603
I2913
sV363
p604
I2924
sV360
p605
I2891
sV3214
p606
I2463
sV2760
p607
I1958
sV3202
p608
I2450
sV380
p609
I3113
sV381
p610
I3124
sV382
p611
I3135
sV383
p612
I3146
sV384
p613
I3157
sV385
p614
I3168
sV386
p615
I3179
sV387
p616
I3190
sV388
p617
I3201
sV389
p618
I3212
sV3215
p619
I2464
sV3216
p620
I2465
sV3759
p621
I3067
sV3758
p622
I3066
sV622
p623
I3621
sV3751
p624
I3059
sV3750
p625
I3058
sV3753
p626
I3061
sV3752
p627
I3060
sV3755
p628
I3063
sV3754
p629
I3062
sV3757
p630
I3065
sV3756
p631
I3064
sV2190
p632
I1325
sV2191
p633
I1326
sV2192
p634
I1327
sV2193
p635
I1328
sV2194
p636
I1329
sV2195
p637
I1330
sV2196
p638
I1331
sV2197
p639
I1332
sV2198
p640
I1333
sV2199
p641
I1334
sV250
p642
I1669
sV251
p643
I1680
sV256
p644
I1735
sV257
p645
I1746
sV254
p646
I1713
sV255
p647
I1724
sV2200
p648
I1337
sV2201
p649
I1338
sV2202
p650
I1339
sV2203
p651
I1340
sV2204
p652
I1341
sV2205
p653
I1342
sV2206
p654
I1343
sV2207
p655
I1344
sV2208
p656
I1345
sV2209
p657
I1346
sV96
p658
I3995
sV3210
p659
I2459
sV680
p660
I3685
sV2428
p661
I1589
sV2429
p662
I1590
sV2420
p663
I1581
sV2421
p664
I1582
sV2422
p665
I1583
sV2423
p666
I1584
sV2424
p667
I1585
sV2425
p668
I1586
sV2426
p669
I1587
sV2427
p670
I1588
sV901
p671
I3931
sV168
p672
I757
sV169
p673
I768
sV164
p674
I713
sV165
p675
I724
sV166
p676
I735
sV167
p677
I746
sV160
p678
I669
sV161
p679
I680
sV162
p680
I691
sV163
p681
I702
sV862
p682
I3887
sV3689
p683
I2989
sV3688
p684
I2988
sV3683
p685
I2983
sV3682
p686
I2982
sV3681
p687
I2981
sV3680
p688
I2980
sV3687
p689
I2987
sV3686
p690
I2986
sV3685
p691
I2985
sV3684
p692
I2984
sV3257
p693
I2510
sV3212
p694
I2461
sV2518
p695
I1689
sV2519
p696
I1690
sV2514
p697
I1685
sV2515
p698
I1686
sV2516
p699
I1687
sV2517
p700
I1688
sV2510
p701
I1681
sV2511
p702
I1682
sV2512
p703
I1683
sV2513
p704
I1684
sV2734
p705
I1929
sV2735
p706
I1930
sV2736
p707
I1931
sV2737
p708
I1932
sV2730
p709
I1925
sV2731
p710
I1926
sV2732
p711
I1927
sV2733
p712
I1928
sV2738
p713
I1933
sV2739
p714
I1934
sV3531
p715
I2815
sV3213
p716
I2462
sV3533
p717
I2817
sV3532
p718
I2816
sV3535
p719
I2819
sV3534
p720
I2818
sV3537
p721
I2821
sV3536
p722
I2820
sV3539
p723
I2823
sV3538
p724
I2822
sV609
p725
I3606
sV679
p726
I3683
sV1814
p727
I907
sV1815
p728
I908
sV1816
p729
I909
sV1817
p730
I910
sV1810
p731
I903
sV1811
p732
I904
sV1812
p733
I905
sV1813
p734
I906
sV1093
p735
I106
sV1818
p736
I911
sV1819
p737
I912
sV646
p738
I3647
sV677
p739
I3681
sV670
p740
I3674
sV2795
p741
I1996
sV671
p742
I3675
sV1609
p743
I679
sV1608
p744
I678
sV3229
p745
I2479
sV3228
p746
I2478
sV1979
p747
I1089
sV1978
p748
I1088
sV1977
p749
I1087
sV1976
p750
I1086
sV1975
p751
I1085
sV1974
p752
I1084
sV1605
p753
I675
sV1972
p754
I1082
sV1971
p755
I1081
sV1970
p756
I1080
sV809
p757
I3828
sV808
p758
I3827
sV803
p759
I3822
sV802
p760
I3821
sV801
p761
I3820
sV800
p762
I3819
sV807
p763
I3826
sV806
p764
I3825
sV805
p765
I3824
sV804
p766
I3823
sV2848
p767
I2055
sV2849
p768
I2056
sV2846
p769
I2053
sV2847
p770
I2054
sV2844
p771
I2051
sV2845
p772
I2052
sV2842
p773
I2049
sV2843
p774
I2050
sV2840
p775
I2047
sV2841
p776
I2048
sV3320
p777
I2581
sV3321
p778
I2582
sV3322
p779
I2583
sV3323
p780
I2584
sV3324
p781
I2585
sV3325
p782
I2586
sV3326
p783
I2587
sV3327
p784
I2588
sV3328
p785
I2589
sV3329
p786
I2590
sV1775
p787
I863
sV1774
p788
I862
sV1777
p789
I865
sV1776
p790
I864
sV1771
p791
I859
sV1770
p792
I858
sV1773
p793
I861
sV1772
p794
I860
sV1779
p795
I867
sV1778
p796
I866
sV3972
p797
I3304
sV608
p798
I3605
sV3975
p799
I3307
sV3974
p800
I3306
sV2998
p801
I2221
sV1159
p802
I179
sV1158
p803
I178
sV2999
p804
I2222
sV1155
p805
I175
sV1154
p806
I174
sV1157
p807
I177
sV1156
p808
I176
sV1151
p809
I171
sV1150
p810
I170
sV1153
p811
I173
sV1152
p812
I172
sV3038
p813
I2267
sV3039
p814
I2268
sV1551
p815
I615
sV1550
p816
I614
sV1553
p817
I617
sV1552
p818
I616
sV1555
p819
I619
sV1554
p820
I618
sV1557
p821
I621
sV1556
p822
I620
sV1559
p823
I623
sV1558
p824
I622
sV2992
p825
I2215
sV2993
p826
I2216
sV2994
p827
I2217
sV2995
p828
I2218
sV2996
p829
I2219
sV2997
p830
I2220
sV537
p831
I3526
sV2990
p832
I2213
sV535
p833
I3524
sV534
p834
I3523
sV533
p835
I3522
sV532
p836
I3521
sV531
p837
I3520
sV2991
p838
I2214
sV3036
p839
I2265
sV539
p840
I3528
sV3299
p841
I2556
sV3037
p842
I2266
sV3030
p843
I2259
sV3541
p844
I2826
sV3031
p845
I2260
sV3294
p846
I2551
sV36
p847
I2890
sV3032
p848
I2261
sV3295
p849
I2552
sV3033
p850
I2262
sV3296
p851
I2553
sV3297
p852
I2554
sV909
p853
I3939
sV536
p854
I3525
sV3290
p855
I2547
sV3291
p856
I2548
sV429
p857
I3406
sV428
p858
I3405
sV3292
p859
I2549
sV1399
p860
I445
sV1398
p861
I444
sV1397
p862
I443
sV1396
p863
I442
sV1395
p864
I441
sV1394
p865
I440
sV1393
p866
I439
sV1392
p867
I438
sV1391
p868
I437
sV1390
p869
I436
sV3812
p870
I3127
sV3813
p871
I3128
sV3810
p872
I3125
sV3811
p873
I3126
sV3816
p874
I3131
sV3817
p875
I3132
sV3814
p876
I3129
sV3815
p877
I3130
sV3818
p878
I3133
sV3819
p879
I3134
sV856
p880
I3880
sV3518
p881
I2800
sV850
p882
I3874
sV851
p883
I3875
sV852
p884
I3876
sV853
p885
I3877
sV538
p886
I3527
sV3516
p887
I2798
sV1321
p888
I360
sV2183
p889
I1317
sV2182
p890
I1316
sV2181
p891
I1315
sV2180
p892
I1314
sV2187
p893
I1321
sV2186
p894
I1320
sV2185
p895
I1319
sV2184
p896
I1318
sV227
p897
I1413
sV226
p898
I1402
sV2189
p899
I1323
sV2188
p900
I1322
sV223
p901
I1369
sV222
p902
I1358
sV221
p903
I1347
sV220
p904
I1336
sV2213
p905
I1351
sV2212
p906
I1350
sV2211
p907
I1349
sV2210
p908
I1348
sV2217
p909
I1355
sV2216
p910
I1354
sV2215
p911
I1353
sV2214
p912
I1352
sV2219
p913
I1357
sV2218
p914
I1356
sV763
p915
I3777
sV151
p916
I569
sV150
p917
I558
sV153
p918
I591
sV152
p919
I580
sV155
p920
I613
sV154
p921
I602
sV157
p922
I635
sV156
p923
I624
sV159
p924
I657
sV158
p925
I646
sV2431
p926
I1593
sV2430
p927
I1592
sV2437
p928
I1599
sV2436
p929
I1598
sV2435
p930
I1597
sV2434
p931
I1596
sV976
p932
I4013
sV2509
p933
I1679
sV2508
p934
I1678
sV2507
p935
I1677
sV2506
p936
I1676
sV2505
p937
I1675
sV2504
p938
I1674
sV2503
p939
I1673
sV2502
p940
I1672
sV2501
p941
I1671
sV2500
p942
I1670
sV2727
p943
I1921
sV2726
p944
I1920
sV2725
p945
I1919
sV2724
p946
I1918
sV2723
p947
I1917
sV2722
p948
I1916
sV2721
p949
I1915
sV2720
p950
I1914
sV2729
p951
I1923
sV2728
p952
I1922
sV3942
p953
I3271
sV1807
p954
I899
sV1806
p955
I898
sV1805
p956
I897
sV1804
p957
I896
sV1803
p958
I895
sV1802
p959
I894
sV1801
p960
I893
sV1800
p961
I892
sV3788
p962
I3099
sV3789
p963
I3100
sV1809
p964
I901
sV1808
p965
I900
sV3473
p966
I2750
sV5
I3484
sV90
p967
I3929
sV632
p968
I3632
sV3710
p969
I3014
sV3258
p970
I2511
sV1256
p971
I287
sV1948
p972
I1055
sV1949
p973
I1056
sV1257
p974
I288
sV1942
p975
I1049
sV1943
p976
I1050
sV1940
p977
I1047
sV1941
p978
I1048
sV1946
p979
I1053
sV1947
p980
I1054
sV1944
p981
I1051
sV1945
p982
I1052
sV818
p983
I3838
sV0
I0
sV1255
p984
I286
sV810
p985
I3830
sV1252
p986
I283
sV812
p987
I3832
sV813
p988
I3833
sV814
p989
I3834
sV815
p990
I3835
sV816
p991
I3836
sV1253
p992
I284
sV2859
p993
I2067
sV1623
p994
I695
sV3495
p995
I2774
sV1250
p996
I281
sV1990
p997
I1102
sV2851
p998
I2059
sV2850
p999
I2058
sV2853
p1000
I2061
sV1251
p1001
I282
sV2855
p1002
I2063
sV1993
p1003
I1105
sV2857
p1004
I2065
sV2856
p1005
I2064
sV1490
p1006
I547
sV1491
p1007
I548
sV1492
p1008
I549
sV1493
p1009
I550
sV1494
p1010
I551
sV1495
p1011
I552
sV1496
p1012
I553
sV1497
p1013
I554
sV1498
p1014
I555
sV1499
p1015
I556
sV3339
p1016
I2601
sV3338
p1017
I2600
sV423
p1018
I3400
sV1626
p1019
I698
sV1700
p1020
I781
sV1701
p1021
I782
sV1702
p1022
I783
sV1703
p1023
I784
sV1704
p1024
I785
sV1705
p1025
I786
sV1706
p1026
I787
sV1707
p1027
I788
sV1708
p1028
I789
sV1709
p1029
I790
sV1996
p1030
I1108
sV424
p1031
I3401
sV892
p1032
I3920
sV427
p1033
I3404
sV3217
p1034
I2466
sV426
p1035
I3403
sV3659
p1036
I2956
sV1128
p1037
I145
sV1129
p1038
I146
sV1120
p1039
I137
sV1121
p1040
I138
sV1122
p1041
I139
sV1123
p1042
I140
sV1124
p1043
I141
sV1125
p1044
I142
sV1126
p1045
I143
sV1127
p1046
I144
sV2989
p1047
I2211
sV2988
p1048
I2210
sV3029
p1049
I2257
sV3028
p1050
I2256
sV2983
p1051
I2205
sV2982
p1052
I2204
sV2981
p1053
I2203
sV2980
p1054
I2202
sV2987
p1055
I2209
sV2986
p1056
I2208
sV2985
p1057
I2207
sV2984
p1058
I2206
sV524
p1059
I3512
sV3953
p1060
I3283
sV526
p1061
I3514
sV527
p1062
I3515
sV1018
p1063
I23
sV1019
p1064
I24
sV522
p1065
I3510
sV3952
p1066
I3282
sV1014
p1067
I19
sV1015
p1068
I20
sV1016
p1069
I21
sV1017
p1070
I22
sV1010
p1071
I15
sV1011
p1072
I16
sV1012
p1073
I17
sV1013
p1074
I18
sV1234
p1075
I263
sV1235
p1076
I264
sV1236
p1077
I265
sV1237
p1078
I266
sV1230
p1079
I259
sV1231
p1080
I260
sV1232
p1081
I261
sV1233
p1082
I262
sV3957
p1083
I3287
sV1238
p1084
I267
sV1239
p1085
I268
sV3956
p1086
I3286
sV2526
p1087
I1698
sV3955
p1088
I3285
sV3954
p1089
I3284
sV833
p1090
I3855
sV438
p1091
I3416
sV439
p1092
I3417
sV436
p1093
I3414
sV437
p1094
I3415
sV434
p1095
I3412
sV435
p1096
I3413
sV432
p1097
I3410
sV433
p1098
I3411
sV2830
p1099
I2036
sV431
p1100
I3409
sV3809
p1101
I3123
sV3808
p1102
I3122
sV3805
p1103
I3119
sV3804
p1104
I3118
sV3807
p1105
I3121
sV3806
p1106
I3120
sV3801
p1107
I3115
sV3800
p1108
I3114
sV3803
p1109
I3117
sV3802
p1110
I3116
sV473
p1111
I3455
sV559
p1112
I3550
sV558
p1113
I3549
sV747
p1114
I3759
sV555
p1115
I3546
sV3162
p1116
I2405
sV554
p1117
I3545
sV51
p1118
I3496
sV49
p1119
I3473
sV3163
p1120
I2406
sV3160
p1121
I2403
sV3060
p1122
I2292
sV995
p1123
I4034
sV3065
p1124
I2297
sV994
p1125
I4033
sV3064
p1126
I2296
sV997
p1127
I4036
sV3161
p1128
I2404
sV996
p1129
I4035
sV238
p1130
I1535
sV239
p1131
I1546
sV234
p1132
I1491
sV235
p1133
I1502
sV236
p1134
I1513
sV237
p1135
I1524
sV230
p1136
I1447
sV231
p1137
I1458
sV232
p1138
I1469
sV233
p1139
I1480
sV3068
p1140
I2300
sV993
p1141
I4032
sV2228
p1142
I1367
sV2229
p1143
I1368
sV2226
p1144
I1365
sV2227
p1145
I1366
sV2224
p1146
I1363
sV2225
p1147
I1364
sV2222
p1148
I1361
sV2223
p1149
I1362
sV2220
p1150
I1359
sV2221
p1151
I1360
sV1
I1
sV2707
p1152
I1899
sV146
p1153
I513
sV147
p1154
I524
sV144
p1155
I491
sV145
p1156
I502
sV142
p1157
I469
sV143
p1158
I480
sV140
p1159
I447
sV141
p1160
I458
sV708
p1161
I3716
sV148
p1162
I535
sV149
p1163
I546
sV50
p1164
I3485
sV3401
p1165
I2671
sV2088
p1166
I1211
sV2089
p1167
I1212
sV3400
p1168
I2670
sV2082
p1169
I1205
sV2083
p1170
I1206
sV2080
p1171
I1203
sV2081
p1172
I1204
sV2086
p1173
I1209
sV2087
p1174
I1210
sV2084
p1175
I1207
sV2085
p1176
I1208
sV3342
p1177
I2605
sV2538
p1178
I1711
sV2539
p1179
I1712
sV3343
p1180
I2606
sV2532
p1181
I1705
sV2533
p1182
I1706
sV2530
p1183
I1703
sV2531
p1184
I1704
sV2536
p1185
I1709
sV2537
p1186
I1710
sV2534
p1187
I1707
sV2535
p1188
I1708
sV2712
p1189
I1905
sV2713
p1190
I1906
sV2710
p1191
I1903
sV2711
p1192
I1904
sV2716
p1193
I1909
sV2717
p1194
I1910
sV2714
p1195
I1907
sV2715
p1196
I1908
sV3346
p1197
I2609
sV2718
p1198
I1911
sV2719
p1199
I1912
sV3347
p1200
I2610
sV3409
p1201
I2679
sV3344
p1202
I2607
sV3408
p1203
I2678
sV3345
p1204
I2608
sV1832
p1205
I927
sV1833
p1206
I928
sV1830
p1207
I925
sV1831
p1208
I926
sV1836
p1209
I931
sV1837
p1210
I932
sV1834
p1211
I929
sV1835
p1212
I930
sV3795
p1213
I3107
sV3090
p1214
I2325
sV1838
p1215
I933
sV1839
p1216
I934
sV3791
p1217
I3103
sV3790
p1218
I3102
sV3075
p1219
I2308
sV3792
p1220
I3104
sV2154
p1221
I1285
sV2155
p1222
I1286
sV2156
p1223
I1287
sV2157
p1224
I1288
sV2150
p1225
I1281
sV2151
p1226
I1282
sV2152
p1227
I1283
sV2153
p1228
I1284
sV933
p1229
I3966
sV932
p1230
I3965
sV931
p1231
I3964
sV930
p1232
I3963
sV2158
p1233
I1289
sV2159
p1234
I1290
sV2408
p1235
I1567
sV2409
p1236
I1568
sV471
p1237
I3453
sV3091
p1238
I2326
sV1955
p1239
I1063
sV1954
p1240
I1062
sV1957
p1241
I1065
sV1956
p1242
I1064
sV1951
p1243
I1059
sV1950
p1244
I1058
sV1953
p1245
I1061
sV1952
p1246
I1060
sV1959
p1247
I1067
sV1958
p1248
I1066
sV3249
p1249
I2501
sV3248
p1250
I2500
sV3096
p1251
I2331
sV3243
p1252
I2495
sV3242
p1253
I2494
sV3241
p1254
I2493
sV3240
p1255
I2492
sV3247
p1256
I2499
sV3246
p1257
I2498
sV3245
p1258
I2497
sV3244
p1259
I2496
sV829
p1260
I3850
sV828
p1261
I3849
sV825
p1262
I3846
sV824
p1263
I3845
sV827
p1264
I3848
sV826
p1265
I3847
sV821
p1266
I3842
sV820
p1267
I3841
sV823
p1268
I3844
sV822
p1269
I3843
sV3097
p1270
I2332
sV3227
p1271
I2477
sV1483
p1272
I539
sV1482
p1273
I538
sV1481
p1274
I537
sV1480
p1275
I536
sV1487
p1276
I543
sV1486
p1277
I542
sV1485
p1278
I541
sV1484
p1279
I540
sV3306
p1280
I2565
sV3307
p1281
I2566
sV1489
p1282
I545
sV1488
p1283
I544
sV3302
p1284
I2561
sV3303
p1285
I2562
sV3300
p1286
I2559
sV3301
p1287
I2560
sV1713
p1288
I795
sV1712
p1289
I794
sV1711
p1290
I793
sV1710
p1291
I792
sV1717
p1292
I799
sV1716
p1293
I798
sV1715
p1294
I797
sV1714
p1295
I796
sV1719
p1296
I801
sV1718
p1297
I800
sV2413
p1298
I1573
sV799
p1299
I3816
sV798
p1300
I3815
sV612
p1301
I3610
sV2412
p1302
I1572
sV613
p1303
I3611
sV2415
p1304
I1575
sV610
p1305
I3608
sV2414
p1306
I1574
sV1139
p1307
I157
sV1138
p1308
I156
sV2417
p1309
I1577
sV1133
p1310
I151
sV1132
p1311
I150
sV1131
p1312
I149
sV1130
p1313
I148
sV1137
p1314
I155
sV1136
p1315
I154
sV1135
p1316
I153
sV1134
p1317
I152
sV2792
p1318
I1993
sV614
p1319
I3612
sV2793
p1320
I1994
sV476
p1321
I3458
sV615
p1322
I3613
sV2790
p1323
I1991
sV3018
p1324
I2245
sV2791
p1325
I1992
sV3012
p1326
I2239
sV2796
p1327
I1997
sV3010
p1328
I2237
sV3011
p1329
I2238
sV3016
p1330
I2243
sV3017
p1331
I2244
sV3014
p1332
I2241
sV2797
p1333
I1998
sV519
p1334
I3506
sV518
p1335
I3505
sV2794
p1336
I1995
sV1009
p1337
I13
sV1008
p1338
I12
sV1007
p1339
I11
sV1006
p1340
I10
sV1005
p1341
I9
sV1004
p1342
I8
sV1003
p1343
I7
sV1002
p1344
I6
sV1001
p1345
I5
sV1000
p1346
I4
sV1227
p1347
I255
sV1226
p1348
I254
sV1225
p1349
I253
sV1224
p1350
I252
sV1223
p1351
I251
sV1222
p1352
I250
sV1221
p1353
I249
sV1220
p1354
I248
sV629
p1355
I3628
sV628
p1356
I3627
sV1229
p1357
I257
sV1228
p1358
I256
sV3279
p1359
I2534
sV2882
p1360
I2093
sV2883
p1361
I2094
sV2880
p1362
I2091
sV2881
p1363
I2092
sV2886
p1364
I2097
sV2887
p1365
I2098
sV2884
p1366
I2095
sV2885
p1367
I2096
sV2888
p1368
I2099
sV2889
p1369
I2100
sV2
I1112
sV3878
p1370
I3199
sV3879
p1371
I3200
sV3870
p1372
I3191
sV3871
p1373
I3192
sV3872
p1374
I3193
sV3873
p1375
I3194
sV3874
p1376
I3195
sV3875
p1377
I3196
sV3876
p1378
I3197
sV3877
p1379
I3198
sV11
p1380
I113
sV10
p1381
I2
sV13
p1382
I335
sV12
p1383
I224
sV15
p1384
I557
sV14
p1385
I446
sV17
p1386
I779
sV16
p1387
I668
sV19
p1388
I1001
sV18
p1389
I890
sV3274
p1390
I2529
sV3275
p1391
I2530
sV3272
p1392
I2527
sV3194
p1393
I2440
sV3904
p1394
I3229
sV3905
p1395
I3230
sV3906
p1396
I3231
sV3907
p1397
I3232
sV3900
p1398
I3225
sV3270
p1399
I2525
sV3902
p1400
I3227
sV3903
p1401
I3228
sV928
p1402
I3960
sV3027
p1403
I2255
sV3271
p1404
I2526
sV3908
p1405
I3233
sV3909
p1406
I3234
sV3193
p1407
I2439
sV929
p1408
I3961
sV2742
p1409
I1938
sV678
p1410
I3682
sV3278
p1411
I2533
sV3192
p1412
I2438
sV688
p1413
I3693
sV201
p1414
I1125
sV200
p1415
I1114
sV203
p1416
I1147
sV202
p1417
I1136
sV205
p1418
I1169
sV204
p1419
I1158
sV207
p1420
I1191
sV206
p1421
I1180
sV209
p1422
I1213
sV208
p1423
I1202
sV2745
p1424
I1941
sV830
p1425
I3852
sV685
p1426
I3690
sV3747
p1427
I3054
sV684
p1428
I3689
sV836
p1429
I3858
sV687
p1430
I3692
sV837
p1431
I3859
sV2239
p1432
I1379
sV2238
p1433
I1378
sV686
p1434
I3691
sV834
p1435
I3856
sV998
p1436
I4037
sV2231
p1437
I1371
sV2230
p1438
I1370
sV2233
p1439
I1373
sV2232
p1440
I1372
sV2235
p1441
I1375
sV2234
p1442
I1374
sV2237
p1443
I1377
sV2236
p1444
I1376
sV683
p1445
I3688
sV682
p1446
I3687
sV229
p1447
I1435
sV3498
p1448
I2777
sV3499
p1449
I2778
sV3496
p1450
I2775
sV3497
p1451
I2776
sV3494
p1452
I2773
sV228
p1453
I1424
sV3492
p1454
I2771
sV3493
p1455
I2772
sV3490
p1456
I2769
sV3491
p1457
I2770
sV2095
p1458
I1219
sV2094
p1459
I1218
sV2097
p1460
I1221
sV2096
p1461
I1220
sV2091
p1462
I1215
sV2090
p1463
I1214
sV2093
p1464
I1217
sV2092
p1465
I1216
sV3654
p1466
I2951
sV3655
p1467
I2952
sV3656
p1468
I2953
sV3657
p1469
I2954
sV2099
p1470
I1223
sV2098
p1471
I1222
sV3652
p1472
I2949
sV3653
p1473
I2950
sV2525
p1474
I1697
sV2524
p1475
I1696
sV2527
p1476
I1699
sV224
p1477
I1380
sV2521
p1478
I1693
sV2520
p1479
I1692
sV2523
p1480
I1695
sV2522
p1481
I1694
sV2529
p1482
I1701
sV2528
p1483
I1700
sV2709
p1484
I1901
sV2708
p1485
I1900
sV2705
p1486
I1897
sV2704
p1487
I1896
sV258
p1488
I1757
sV2706
p1489
I1898
sV2701
p1490
I1893
sV2700
p1491
I1892
sV2703
p1492
I1895
sV2702
p1493
I1894
sV1829
p1494
I923
sV1828
p1495
I922
sV2951
p1496
I2170
sV1825
p1497
I919
sV1824
p1498
I918
sV1827
p1499
I921
sV1826
p1500
I920
sV1821
p1501
I915
sV1820
p1502
I914
sV1823
p1503
I917
sV1822
p1504
I916
sV2147
p1505
I1277
sV2146
p1506
I1276
sV2145
p1507
I1275
sV2144
p1508
I1274
sV2143
p1509
I1273
sV2142
p1510
I1272
sV2141
p1511
I1271
sV2140
p1512
I1270
sV2419
p1513
I1579
sV2418
p1514
I1578
sV922
p1515
I3954
sV923
p1516
I3955
sV924
p1517
I3956
sV925
p1518
I3957
sV2149
p1519
I1279
sV2148
p1520
I1278
sV3669
p1521
I2967
sV3950
p1522
I3280
sV2411
p1523
I1571
sV1920
p1524
I1025
sV1921
p1525
I1026
sV1922
p1526
I1027
sV1923
p1527
I1028
sV1924
p1528
I1029
sV1925
p1529
I1030
sV1926
p1530
I1031
sV1927
p1531
I1032
sV1928
p1532
I1033
sV1929
p1533
I1034
sV475
p1534
I3457
sV3069
p1535
I2301
sV3145
p1536
I2386
sV3474
p1537
I2751
sV3475
p1538
I2752
sV3476
p1539
I2753
sV3477
p1540
I2754
sV3470
p1541
I2747
sV3471
p1542
I2748
sV3472
p1543
I2749
sV2410
p1544
I1570
sV838
p1545
I3860
sV839
p1546
I3861
sV3478
p1547
I2755
sV3479
p1548
I2756
sV3
I2223
sV493
p1549
I3477
sV3332
p1550
I2594
sV3199
p1551
I2445
sV3319
p1552
I2579
sV3318
p1553
I2578
sV3311
p1554
I2571
sV3310
p1555
I2570
sV3313
p1556
I2573
sV3312
p1557
I2572
sV3315
p1558
I2575
sV3314
p1559
I2574
sV3317
p1560
I2577
sV3316
p1561
I2576
sV784
p1562
I3800
sV785
p1563
I3801
sV786
p1564
I3802
sV787
p1565
I3803
sV3331
p1566
I2593
sV781
p1567
I3797
sV1728
p1568
I811
sV1729
p1569
I812
sV1726
p1570
I809
sV1727
p1571
I810
sV1724
p1572
I807
sV1725
p1573
I808
sV1722
p1574
I805
sV1723
p1575
I806
sV1720
p1576
I803
sV1721
p1577
I804
sV252
p1578
I1691
sV3330
p1579
I2592
sV2439
p1580
I1601
sV3005
p1581
I2231
sV3004
p1582
I2230
sV3007
p1583
I2233
sV2438
p1584
I1600
sV3001
p1585
I2227
sV3000
p1586
I2226
sV3003
p1587
I2229
sV3002
p1588
I2228
sV68
p1589
I3684
sV69
p1590
I3695
sV253
p1591
I1702
sV3008
p1592
I2234
sV407
p1593
I3382
sV1588
p1594
I655
sV1589
p1595
I656
sV406
p1596
I3381
sV1582
p1597
I649
sV1583
p1598
I650
sV1580
p1599
I647
sV1581
p1600
I648
sV1586
p1601
I653
sV1587
p1602
I654
sV1584
p1603
I651
sV1585
p1604
I652
sV2433
p1605
I1595
sV1038
p1606
I45
sV1039
p1607
I46
sV508
p1608
I3494
sV2432
p1609
I1594
sV1032
p1610
I39
sV1033
p1611
I40
sV1030
p1612
I37
sV1031
p1613
I38
sV1036
p1614
I43
sV1037
p1615
I44
sV1034
p1616
I41
sV1035
p1617
I42
sV1212
p1618
I239
sV1213
p1619
I240
sV1210
p1620
I237
sV1211
p1621
I238
sV1216
p1622
I243
sV1217
p1623
I244
sV1214
p1624
I241
sV1215
p1625
I242
sV638
p1626
I3638
sV639
p1627
I3639
sV1218
p1628
I245
sV1219
p1629
I246
sV780
p1630
I3796
sV2416
p1631
I1576
sV3335
p1632
I2597
sV465
p1633
I3446
sV782
p1634
I3798
sV2899
p1635
I2111
sV2898
p1636
I2110
sV2895
p1637
I2107
sV2894
p1638
I2106
sV2897
p1639
I2109
sV2896
p1640
I2108
sV2891
p1641
I2103
sV2890
p1642
I2102
sV2893
p1643
I2105
sV2892
p1644
I2104
sV1454
p1645
I507
sV1455
p1646
I508
sV1456
p1647
I509
sV1457
p1648
I510
sV1450
p1649
I503
sV1451
p1650
I504
sV1452
p1651
I505
sV1453
p1652
I506
sV408
p1653
I3383
sV1458
p1654
I511
sV1459
p1655
I512
sV1108
p1656
I123
sV1109
p1657
I124
sV4021
p1658
I3360
sV3869
p1659
I3189
sV3868
p1660
I3188
sV3863
p1661
I3183
sV3862
p1662
I3182
sV3861
p1663
I3181
sV3860
p1664
I3180
sV3867
p1665
I3187
sV3866
p1666
I3186
sV3865
p1667
I3185
sV3864
p1668
I3184
sV3737
p1669
I3043
sV3736
p1670
I3042
sV3735
p1671
I3041
sV3831
p1672
I3148
sV3734
p1673
I3040
sV3733
p1674
I3039
sV3732
p1675
I3038
sV3731
p1676
I3037
sV3730
p1677
I3036
sV3917
p1678
I3243
sV3916
p1679
I3242
sV3915
p1680
I3241
sV3914
p1681
I3240
sV3913
p1682
I3239
sV3912
p1683
I3238
sV3911
p1684
I3237
sV3910
p1685
I3236
sV3919
p1686
I3245
sV3918
p1687
I3244
sV461
p1688
I3442
sV3070
p1689
I2303
sV4030
p1690
I3370
sV2965
p1691
I2185
sV3071
p1692
I2304
sV216
p1693
I1291
sV217
p1694
I1302
sV214
p1695
I1269
sV215
p1696
I1280
sV212
p1697
I1247
sV213
p1698
I1258
sV210
p1699
I1225
sV211
p1700
I1236
sV4036
p1701
I3376
sV218
p1702
I1313
sV219
p1703
I1324
sV920
p1704
I3952
sV578
p1705
I3571
sV3094
p1706
I2329
sV788
p1707
I3804
sV956
p1708
I3991
sV789
p1709
I3805
sV4
I3334
sV3489
p1710
I2767
sV3488
p1711
I2766
sV3481
p1712
I2759
sV3480
p1713
I2758
sV3284
p1714
I2540
sV3482
p1715
I2760
sV3485
p1716
I2763
sV3484
p1717
I2762
sV3487
p1718
I2765
sV3486
p1719
I2764
sV938
p1720
I3971
sV3649
p1721
I2945
sV3648
p1722
I2944
sV3074
p1723
I2307
sV3646
p1724
I2942
sV3645
p1725
I2941
sV3644
p1726
I2940
sV3643
p1727
I2939
sV3642
p1728
I2938
sV3641
p1729
I2937
sV3640
p1730
I2936
sV2550
p1731
I1725
sV2551
p1732
I1726
sV2552
p1733
I1727
sV2553
p1734
I1728
sV2554
p1735
I1729
sV2555
p1736
I1730
sV2556
p1737
I1731
sV2557
p1738
I1732
sV2558
p1739
I1733
sV2559
p1740
I1734
sV62
p1741
I3618
sV2396
p1742
I1553
sV2397
p1743
I1554
sV2394
p1744
I1551
sV2395
p1745
I1552
sV2392
p1746
I1549
sV2393
p1747
I1550
sV2390
p1748
I1547
sV2391
p1749
I1548
sV64
p1750
I3640
sV2398
p1751
I1555
sV2399
p1752
I1556
sV2778
p1753
I1977
sV2779
p1754
I1978
sV640
p1755
I3641
sV66
p1756
I3662
sV3282
p1757
I2538
sV2770
p1758
I1969
sV2771
p1759
I1970
sV2772
p1760
I1971
sV2773
p1761
I1972
sV2774
p1762
I1973
sV2775
p1763
I1974
sV2776
p1764
I1975
sV2777
p1765
I1976
sV3166
p1766
I2409
sV2751
p1767
I1948
sV3167
p1768
I2410
sV3940
p1769
I3269
sV3164
p1770
I2407
sV984
p1771
I4022
sV1858
p1772
I955
sV1859
p1773
I956
sV3165
p1774
I2408
sV3281
p1775
I2537
sV921
p1776
I3953
sV1850
p1777
I947
sV1851
p1778
I948
sV1852
p1779
I949
sV1853
p1780
I950
sV1854
p1781
I951
sV1855
p1782
I952
sV1856
p1783
I953
sV1857
p1784
I954
sV2172
p1785
I1305
sV2173
p1786
I1306
sV2170
p1787
I1303
sV2171
p1788
I1304
sV2176
p1789
I1309
sV2177
p1790
I1310
sV2174
p1791
I1307
sV2175
p1792
I1308
sV3941
p1793
I3270
sV914
p1794
I3945
sV2178
p1795
I1311
sV2179
p1796
I1312
sV911
p1797
I3942
sV910
p1798
I3941
sV913
p1799
I3944
sV912
p1800
I3943
sV2604
p1801
I1785
sV2605
p1802
I1786
sV2606
p1803
I1787
sV2607
p1804
I1788
sV2600
p1805
I1781
sV2601
p1806
I1782
sV2602
p1807
I1783
sV2603
p1808
I1784
sV2608
p1809
I1789
sV1423
p1810
I473
sV1933
p1811
I1039
sV1932
p1812
I1038
sV1931
p1813
I1037
sV1930
p1814
I1036
sV1937
p1815
I1043
sV1936
p1816
I1042
sV1935
p1817
I1041
sV1934
p1818
I1040
sV3269
p1819
I2523
sV3268
p1820
I2522
sV1939
p1821
I1045
sV1938
p1822
I1044
sV3369
p1823
I2634
sV3467
p1824
I2743
sV3466
p1825
I2742
sV3465
p1826
I2741
sV3464
p1827
I2740
sV3463
p1828
I2739
sV3462
p1829
I2738
sV3461
p1830
I2737
sV3460
p1831
I2736
sV3469
p1832
I2745
sV3468
p1833
I2744
sV664
p1834
I3667
sV3364
p1835
I2629
sV3009
p1836
I2235
sV2406
p1837
I1565
sV663
p1838
I3666
sV3361
p1839
I2626
sV2407
p1840
I1566
sV1739
p1841
I823
sV1738
p1842
I822
sV1731
p1843
I815
sV1730
p1844
I814
sV1733
p1845
I817
sV1732
p1846
I816
sV1735
p1847
I819
sV1734
p1848
I818
sV1737
p1849
I821
sV1736
p1850
I820
sV732
p1851
I3743
sV753
p1852
I3766
sV3782
p1853
I3093
sV751
p1854
I3764
sV750
p1855
I3763
sV757
p1856
I3770
sV756
p1857
I3769
sV755
p1858
I3768
sV3783
p1859
I3094
sV661
p1860
I3664
sV509
p1861
I3495
sV3780
p1862
I3091
sV1595
p1863
I663
sV1594
p1864
I662
sV1597
p1865
I665
sV1596
p1866
I664
sV1591
p1867
I659
sV1590
p1868
I658
sV1593
p1869
I661
sV1592
p1870
I660
sV2954
p1871
I2173
sV2955
p1872
I2174
sV2956
p1873
I2175
sV2957
p1874
I2176
sV1599
p1875
I667
sV1598
p1876
I666
sV2952
p1877
I2171
sV2953
p1878
I2172
sV1025
p1879
I31
sV1024
p1880
I30
sV1027
p1881
I33
sV1026
p1882
I32
sV1021
p1883
I27
sV1020
p1884
I26
sV1023
p1885
I29
sV1022
p1886
I28
sV502
p1887
I3488
sV3785
p1888
I3096
sV1029
p1889
I35
sV1028
p1890
I34
sV503
p1891
I3489
sV500
p1892
I3486
sV501
p1893
I3487
sV3951
p1894
I3281
sV605
p1895
I3602
sV604
p1896
I3601
sV2609
p1897
I1790
sV606
p1898
I3603
sV1209
p1899
I235
sV1208
p1900
I234
sV603
p1901
I3600
sV602
p1902
I3599
sV1205
p1903
I231
sV1204
p1904
I230
sV1207
p1905
I233
sV1206
p1906
I232
sV1201
p1907
I227
sV1200
p1908
I226
sV1203
p1909
I229
sV1202
p1910
I228
sV633
p1911
I3633
sV634
p1912
I3634
sV935
p1913
I3968
sV468
p1914
I3449
sV3108
p1915
I2345
sV3109
p1916
I2346
sV3104
p1917
I2341
sV3105
p1918
I2342
sV3106
p1919
I2343
sV3107
p1920
I2344
sV3100
p1921
I2337
sV3101
p1922
I2338
sV3102
p1923
I2339
sV3103
p1924
I2340
sV1447
p1925
I499
sV1446
p1926
I498
sV1113
p1927
I129
sV1112
p1928
I128
sV1443
p1929
I495
sV1442
p1930
I494
sV1117
p1931
I133
sV1440
p1932
I492
sV1119
p1933
I135
sV1118
p1934
I134
sV467
p1935
I3448
sV1449
p1936
I501
sV1448
p1937
I500
sV466
p1938
I3447
sV78
p1939
I3795
sV2401
p1940
I1560
sV450
p1941
I3430
sV460
p1942
I3441
sV463
p1943
I3444
sV489
p1944
I3472
sV488
p1945
I3471
sV3704
p1946
I3007
sV486
p1947
I3469
sV485
p1948
I3468
sV462
p1949
I3443
sV483
p1950
I3466
sV482
p1951
I3465
sV481
p1952
I3464
sV480
p1953
I3463
sV991
p1954
I4030
sV451
p1955
I3431
sV3705
p1956
I3008
sV990
p1957
I4029
sV695
p1958
I3701
sV3922
p1959
I3249
sV3923
p1960
I3250
sV3920
p1961
I3247
sV3921
p1962
I3248
sV3926
p1963
I3253
sV3927
p1964
I3254
sV3924
p1965
I3251
sV3925
p1966
I3252
sV3928
p1967
I3255
sV3929
p1968
I3256
sV3993
p1969
I3327
sV3647
p1970
I2943
sV453
p1971
I3433
sV3992
p1972
I3326
sV3856
p1973
I3175
sV3857
p1974
I3176
sV3854
p1975
I3173
sV3855
p1976
I3174
sV3852
p1977
I3171
sV3853
p1978
I3172
sV3850
p1979
I3169
sV3851
p1980
I3170
sV992
p1981
I4031
sV3858
p1982
I3177
sV3859
p1983
I3178
sV3283
p1984
I2539
sV619
p1985
I3617
sV3665
p1986
I2963
sV456
p1987
I3436
sV199
p1988
I1101
sV198
p1989
I1090
sV3664
p1990
I2962
sV195
p1991
I1057
sV194
p1992
I1046
sV197
p1993
I1079
sV196
p1994
I1068
sV191
p1995
I1013
sV190
p1996
I1002
sV193
p1997
I1035
sV192
p1998
I1024
sV3678
p1999
I2977
sV3679
p2000
I2978
sV3672
p2001
I2971
sV3673
p2002
I2972
sV3670
p2003
I2969
sV3671
p2004
I2970
sV3676
p2005
I2975
sV3677
p2006
I2976
sV3674
p2007
I2973
sV3675
p2008
I2974
sV2543
p2009
I1717
sV1106
p2010
I121
sV2541
p2011
I1715
sV2540
p2012
I1714
sV2547
p2013
I1721
sV2546
p2014
I1720
sV2545
p2015
I1719
sV1107
p2016
I122
sV3006
p2017
I2232
sV2549
p2018
I1723
sV2548
p2019
I1722
sV1104
p2020
I119
sV2381
p2021
I1537
sV2380
p2022
I1536
sV2383
p2023
I1539
sV1105
p2024
I120
sV2385
p2025
I1541
sV2384
p2026
I1540
sV2387
p2027
I1543
sV2386
p2028
I1542
sV2389
p2029
I1545
sV1102
p2030
I117
sV1103
p2031
I118
sV3580
p2032
I2869
sV3581
p2033
I2870
sV2769
p2034
I1967
sV2768
p2035
I1966
sV3584
p2036
I2873
sV1100
p2037
I115
sV3586
p2038
I2875
sV3259
p2039
I2512
sV2763
p2040
I1961
sV2762
p2041
I1960
sV2761
p2042
I1959
sV1101
p2043
I116
sV2767
p2044
I1965
sV2766
p2045
I1964
sV2765
p2046
I1963
sV2764
p2047
I1962
sV999
p2048
I4038
sV902
p2049
I3932
sV903
p2050
I3933
sV1849
p2051
I945
sV1848
p2052
I944
sV906
p2053
I3936
sV907
p2054
I3937
sV904
p2055
I3934
sV905
p2056
I3935
sV1843
p2057
I939
sV1842
p2058
I938
sV1841
p2059
I937
sV1840
p2060
I936
sV1847
p2061
I943
sV1846
p2062
I942
sV1845
p2063
I941
sV1844
p2064
I940
sV3250
p2065
I2503
sV2169
p2066
I1301
sV2168
p2067
I1300
sV3251
p2068
I2504
sV2165
p2069
I1297
sV2164
p2070
I1296
sV2167
p2071
I1299
sV2166
p2072
I1298
sV2161
p2073
I1293
sV2160
p2074
I1292
sV2163
p2075
I1295
sV2162
p2076
I1294
sV2617
p2077
I1799
sV2616
p2078
I1798
sV2615
p2079
I1797
sV2614
p2080
I1796
sV2613
p2081
I1795
sV2612
p2082
I1794
sV2611
p2083
I1793
sV2610
p2084
I1792
sV3254
p2085
I2507
sV2619
p2086
I1801
sV2618
p2087
I1800
sV3298
p2088
I2555
sV3256
p2089
I2509
sV1908
p2090
I1011
sV1909
p2091
I1012
sV1906
p2092
I1009
sV1907
p2093
I1010
sV1904
p2094
I1007
sV1905
p2095
I1008
sV1902
p2096
I1005
sV1903
p2097
I1006
sV1900
p2098
I1003
sV1901
p2099
I1004
sV3452
p2100
I2727
sV3453
p2101
I2728
sV3450
p2102
I2725
sV3451
p2103
I2726
sV3456
p2104
I2731
sV3457
p2105
I2732
sV3454
p2106
I2729
sV3455
p2107
I2730
sV3458
p2108
I2733
sV3459
p2109
I2734
sV858
p2110
I3882
sV859
p2111
I3883
sV3293
p2112
I2550
sV6
I3595
sV641
p2113
I3642
sV425
p2114
I3402
sV811
p2115
I3831
sV611
p2116
I3609
sV817
p2117
I3837
sV616
p2118
I3614
sV740
p2119
I3752
sV741
p2120
I3753
sV742
p2121
I3754
sV743
p2122
I3755
sV744
p2123
I3756
sV745
p2124
I3757
sV746
p2125
I3758
sV2858
p2126
I2066
sV748
p2127
I3760
sV749
p2128
I3761
sV2912
p2129
I2127
sV3063
p2130
I2295
sV3062
p2131
I2294
sV3061
p2132
I2293
sV2913
p2133
I2128
sV3067
p2134
I2299
sV3066
p2135
I2298
sV2949
p2136
I2167
sV2948
p2137
I2166
sV2947
p2138
I2165
sV2946
p2139
I2164
sV2945
p2140
I2163
sV2944
p2141
I2162
sV2943
p2142
I2161
sV2942
p2143
I2160
sV2941
p2144
I2159
sV2940
p2145
I2158
sV1050
p2146
I59
sV1051
p2147
I60
sV1052
p2148
I61
sV1053
p2149
I62
sV1054
p2150
I63
sV1055
p2151
I64
sV1056
p2152
I65
sV1057
p2153
I66
sV1058
p2154
I67
sV1059
p2155
I68
sV3989
p2156
I3322
sV1696
p2157
I775
sV1697
p2158
I776
sV1694
p2159
I773
sV1695
p2160
I774
sV1692
p2161
I771
sV1693
p2162
I772
sV1690
p2163
I769
sV1691
p2164
I770
sV715
p2165
I3724
sV1698
p2166
I777
sV1699
p2167
I778
sV1278
p2168
I311
sV1279
p2169
I312
sV618
p2170
I3616
sV2852
p2171
I2060
sV1270
p2172
I303
sV1271
p2173
I304
sV1272
p2174
I305
sV1273
p2175
I306
sV1274
p2176
I307
sV1275
p2177
I308
sV1276
p2178
I309
sV1277
p2179
I310
sV711
p2180
I3720
sV710
p2181
I3719
sV3333
p2182
I2595
sV3119
p2183
I2357
sV3118
p2184
I2356
sV3117
p2185
I2355
sV3116
p2186
I2354
sV3115
p2187
I2353
sV3114
p2188
I2352
sV3113
p2189
I2351
sV3112
p2190
I2350
sV3111
p2191
I2349
sV3110
p2192
I2348
sV1472
p2193
I527
sV1473
p2194
I528
sV1470
p2195
I525
sV1471
p2196
I526
sV1476
p2197
I531
sV1477
p2198
I532
sV1474
p2199
I529
sV1475
p2200
I530
sV3337
p2201
I2599
sV1478
p2202
I533
sV1479
p2203
I534
sV3336
p2204
I2598
sV1304
p2205
I341
sV1305
p2206
I342
sV1306
p2207
I343
sV1307
p2208
I344
sV1300
p2209
I337
sV1301
p2210
I338
sV1302
p2211
I339
sV1303
p2212
I340
sV3334
p2213
I2596
sV1308
p2214
I345
sV1309
p2215
I346
sV3308
p2216
I2567
sV3590
p2217
I2880
sV498
p2218
I3482
sV499
p2219
I3483
sV3280
p2220
I2536
sV494
p2221
I3478
sV3597
p2222
I2887
sV496
p2223
I3480
sV497
p2224
I3481
sV490
p2225
I3474
sV491
p2226
I3475
sV492
p2227
I3476
sV3596
p2228
I2886
sV24
p2229
I1557
sV25
p2230
I1668
sV26
p2231
I1779
sV27
p2232
I1890
sV20
p2233
I1113
sV21
p2234
I1224
sV22
p2235
I1335
sV23
p2236
I1446
sV3594
p2237
I2884
sV28
p2238
I2001
sV29
p2239
I2112
sV3262
p2240
I2516
sV3939
p2241
I3267
sV3938
p2242
I3266
sV3935
p2243
I3263
sV3934
p2244
I3262
sV3937
p2245
I3265
sV3936
p2246
I3264
sV3931
p2247
I3259
sV3930
p2248
I3258
sV3933
p2249
I3261
sV3932
p2250
I3260
sV3265
p2251
I2519
sV3841
p2252
I3159
sV3840
p2253
I3158
sV3264
p2254
I2518
sV3842
p2255
I3160
sV3845
p2256
I3163
sV3844
p2257
I3162
sV3847
p2258
I3165
sV3846
p2259
I3164
sV3849
p2260
I3167
sV3848
p2261
I3166
sV963
p2262
I3999
sV874
p2263
I3900
sV7
I3706
sV3982
p2264
I3315
sV607
p2265
I3604
sV2288
p2266
I1433
sV2289
p2267
I1434
sV3667
p2268
I2965
sV3666
p2269
I2964
sV3661
p2270
I2959
sV3660
p2271
I2958
sV3663
p2272
I2961
sV3662
p2273
I2960
sV2280
p2274
I1425
sV2281
p2275
I1426
sV2282
p2276
I1427
sV2283
p2277
I1428
sV2284
p2278
I1429
sV2285
p2279
I1430
sV2286
p2280
I1431
sV2287
p2281
I1432
sV411
p2282
I3387
sV939
p2283
I3972
sV420
p2284
I3397
sV2578
p2285
I1755
sV2579
p2286
I1756
sV2576
p2287
I1753
sV2577
p2288
I1754
sV2574
p2289
I1751
sV2575
p2290
I1752
sV2572
p2291
I1749
sV2573
p2292
I1750
sV2570
p2293
I1747
sV2571
p2294
I1748
sV3690
p2295
I2991
sV2378
p2296
I1533
sV2379
p2297
I1534
sV3691
p2298
I2992
sV2374
p2299
I1529
sV2375
p2300
I1530
sV2376
p2301
I1531
sV2377
p2302
I1532
sV2370
p2303
I1525
sV2371
p2304
I1526
sV2372
p2305
I1527
sV2373
p2306
I1528
sV2594
p2307
I1773
sV2595
p2308
I1774
sV2596
p2309
I1775
sV2597
p2310
I1776
sV2590
p2311
I1769
sV2591
p2312
I1770
sV2592
p2313
I1771
sV2593
p2314
I1772
sV3599
p2315
I2889
sV3598
p2316
I2888
sV2598
p2317
I1777
sV2599
p2318
I1778
sV1876
p2319
I975
sV1877
p2320
I976
sV1874
p2321
I973
sV1875
p2322
I974
sV1872
p2323
I971
sV1873
p2324
I972
sV1870
p2325
I969
sV1871
p2326
I970
sV600
p2327
I3597
sV595
p2328
I3590
sV1878
p2329
I977
sV1879
p2330
I978
sV977
p2331
I4014
sV182
p2332
I913
sV975
p2333
I4012
sV974
p2334
I4011
sV973
p2335
I4010
sV597
p2336
I3592
sV971
p2337
I4008
sV183
p2338
I924
sV596
p2339
I3591
sV979
p2340
I4016
sV978
p2341
I4015
sV2118
p2342
I1245
sV2119
p2343
I1246
sV180
p2344
I891
sV181
p2345
I902
sV186
p2346
I957
sV187
p2347
I968
sV184
p2348
I935
sV185
p2349
I946
sV2110
p2350
I1237
sV2111
p2351
I1238
sV2112
p2352
I1239
sV2113
p2353
I1240
sV2114
p2354
I1241
sV2115
p2355
I1242
sV2116
p2356
I1243
sV2117
p2357
I1244
sV2622
p2358
I1805
sV2623
p2359
I1806
sV2620
p2360
I1803
sV2621
p2361
I1804
sV2626
p2362
I1809
sV2627
p2363
I1810
sV2624
p2364
I1807
sV2625
p2365
I1808
sV2628
p2366
I1811
sV2629
p2367
I1812
sV60
p2368
I3596
sV1919
p2369
I1023
sV1918
p2370
I1022
sV3289
p2371
I2545
sV3288
p2372
I2544
sV1911
p2373
I1015
sV1910
p2374
I1014
sV1913
p2375
I1017
sV1912
p2376
I1016
sV1915
p2377
I1019
sV188
p2378
I979
sV1917
p2379
I1021
sV1916
p2380
I1020
sV869
p2381
I3894
sV868
p2382
I3893
sV189
p2383
I990
sV3449
p2384
I2723
sV3448
p2385
I2722
sV516
p2386
I3503
sV3141
p2387
I2382
sV3445
p2388
I2719
sV3444
p2389
I2718
sV3447
p2390
I2721
sV3446
p2391
I2720
sV3441
p2392
I2715
sV3440
p2393
I2714
sV3443
p2394
I2717
sV3442
p2395
I2716
sV2024
p2396
I1141
sV2025
p2397
I1142
sV2026
p2398
I1143
sV2027
p2399
I1144
sV2020
p2400
I1137
sV2021
p2401
I1138
sV2022
p2402
I1139
sV2023
p2403
I1140
sV3144
p2404
I2385
sV2028
p2405
I1145
sV2029
p2406
I1146
sV2758
p2407
I1955
sV2759
p2408
I1956
sV883
p2409
I3910
sV882
p2410
I3909
sV881
p2411
I3908
sV3971
p2412
I3303
sV887
p2413
I3914
sV886
p2414
I3913
sV885
p2415
I3912
sV884
p2416
I3911
sV889
p2417
I3916
sV888
p2418
I3915
sV3148
p2419
I2389
sV3149
p2420
I2390
sV4014
p2421
I3352
sV657
p2422
I3659
sV3970
p2423
I3302
sV3729
p2424
I3034
sV63
p2425
I3629
sV418
p2426
I3394
sV3988
p2427
I3321
sV654
p2428
I3656
sV3973
p2429
I3305
sV775
p2430
I3790
sV774
p2431
I3789
sV777
p2432
I3792
sV776
p2433
I3791
sV771
p2434
I3786
sV770
p2435
I3785
sV773
p2436
I3788
sV772
p2437
I3787
sV779
p2438
I3794
sV778
p2439
I3793
sV419
p2440
I3395
sV77
p2441
I3784
sV76
p2442
I3773
sV2978
p2443
I2199
sV2979
p2444
I2200
sV73
p2445
I3740
sV72
p2446
I3729
sV3058
p2447
I2289
sV3059
p2448
I2290
sV2972
p2449
I2193
sV2973
p2450
I2194
sV2970
p2451
I2191
sV2971
p2452
I2192
sV2976
p2453
I2197
sV2977
p2454
I2198
sV2974
p2455
I2195
sV2975
p2456
I2196
sV1043
p2457
I51
sV1042
p2458
I50
sV1041
p2459
I49
sV1040
p2460
I48
sV1047
p2461
I55
sV1046
p2462
I54
sV1045
p2463
I53
sV1044
p2464
I52
sV1049
p2465
I57
sV1048
p2466
I56
sV1681
p2467
I759
sV1680
p2468
I758
sV1683
p2469
I761
sV1682
p2470
I760
sV1685
p2471
I763
sV1684
p2472
I762
sV1687
p2473
I765
sV1686
p2474
I764
sV1689
p2475
I767
sV1688
p2476
I766
sV3983
p2477
I3316
sV3025
p2478
I2253
sV1269
p2479
I301
sV1268
p2480
I300
sV3341
p2481
I2604
sV669
p2482
I3672
sV668
p2483
I3671
sV1263
p2484
I295
sV1262
p2485
I294
sV1261
p2486
I293
sV1260
p2487
I292
sV1267
p2488
I299
sV1266
p2489
I298
sV1265
p2490
I297
sV1264
p2491
I296
sV3287
p2492
I2543
sV3021
p2493
I2249
sV3286
p2494
I2542
sV3095
p2495
I2330
sV3020
p2496
I2248
sV3285
p2497
I2541
sV67
p2498
I3673
sV3128
p2499
I2367
sV3129
p2500
I2368
sV525
p2501
I3513
sV3122
p2502
I2361
sV3123
p2503
I2362
sV264
p2504
I1824
sV3121
p2505
I2360
sV3126
p2506
I2365
sV3127
p2507
I2366
sV3124
p2508
I2363
sV1914
p2509
I1018
sV421
p2510
I3398
sV650
p2511
I3652
sV1469
p2512
I523
sV1468
p2513
I522
sV3977
p2514
I3309
sV1465
p2515
I519
sV1464
p2516
I518
sV1467
p2517
I521
sV1466
p2518
I520
sV1461
p2519
I515
sV1460
p2520
I514
sV1463
p2521
I517
sV1462
p2522
I516
sV1317
p2523
I355
sV1316
p2524
I354
sV1315
p2525
I353
sV1314
p2526
I352
sV1313
p2527
I351
sV1312
p2528
I350
sV1311
p2529
I349
sV1310
p2530
I348
sV3276
p2531
I2531
sV523
p2532
I3511
sV1319
p2533
I357
sV1318
p2534
I356
sV3976
p2535
I3308
sV767
p2536
I3781
sV926
p2537
I3958
sV3277
p2538
I2532
sV528
p2539
I3516
sV464
p2540
I3445
sV529
p2541
I3517
sV861
p2542
I3886
sV3035
p2543
I2264
sV860
p2544
I3885
sV712
p2545
I3721
sV863
p2546
I3888
sV3948
p2547
I3277
sV3949
p2548
I3278
sV319
p2549
I2435
sV318
p2550
I2424
sV3403
p2551
I2673
sV313
p2552
I2369
sV312
p2553
I2358
sV311
p2554
I2347
sV310
p2555
I2336
sV317
p2556
I2413
sV316
p2557
I2402
sV315
p2558
I2391
sV314
p2559
I2380
sV867
p2560
I3892
sV866
p2561
I3891
sV2756
p2562
I1953
sV3402
p2563
I2672
sV2757
p2564
I1954
sV2754
p2565
I1951
sV443
p2566
I3422
sV2755
p2567
I1952
sV442
p2568
I3421
sV2752
p2569
I1949
sV441
p2570
I3420
sV3658
p2571
I2955
sV2753
p2572
I1950
sV3405
p2573
I2675
sV440
p2574
I3419
sV2750
p2575
I1947
sV2322
p2576
I1472
sV447
p2577
I3426
sV2698
p2578
I1888
sV446
p2579
I3425
sV445
p2580
I3424
sV444
p2581
I3423
sV3404
p2582
I2674
sV3273
p2583
I2528
sV2324
p2584
I1474
sV2692
p2585
I1882
sV630
p2586
I3630
sV405
p2587
I3380
sV3843
p2588
I3161
sV3407
p2589
I2677
sV3610
p2590
I2903
sV3611
p2591
I2904
sV2299
p2592
I1445
sV2298
p2593
I1444
sV3614
p2594
I2907
sV3615
p2595
I2908
sV3616
p2596
I2909
sV3617
p2597
I2910
sV2293
p2598
I1439
sV2292
p2599
I1438
sV2291
p2600
I1437
sV2290
p2601
I1436
sV2297
p2602
I1443
sV2296
p2603
I1442
sV2295
p2604
I1441
sV2294
p2605
I1440
sV404
p2606
I3379
sV880
p2607
I3907
sV3406
p2608
I2676
sV2569
p2609
I1745
sV2568
p2610
I1744
sV2561
p2611
I1737
sV2560
p2612
I1736
sV2563
p2613
I1739
sV2562
p2614
I1738
sV2565
p2615
I1741
sV2564
p2616
I1740
sV2567
p2617
I1743
sV2566
p2618
I1742
sV908
p2619
I3938
sV2369
p2620
I1523
sV2368
p2621
I1522
sV2367
p2622
I1521
sV2366
p2623
I1520
sV2365
p2624
I1519
sV2364
p2625
I1518
sV2363
p2626
I1517
sV2362
p2627
I1516
sV2361
p2628
I1515
sV2360
p2629
I1514
sV2587
p2630
I1765
sV2586
p2631
I1764
sV2585
p2632
I1763
sV2584
p2633
I1762
sV2583
p2634
I1761
sV2582
p2635
I1760
sV2581
p2636
I1759
sV2580
p2637
I1758
sV865
p2638
I3890
sV39
p2639
I3223
sV2589
p2640
I1767
sV2588
p2641
I1766
sV1861
p2642
I959
sV1860
p2643
I958
sV1863
p2644
I961
sV1862
p2645
I960
sV1865
p2646
I963
sV1864
p2647
I962
sV1867
p2648
I965
sV1866
p2649
I964
sV1869
p2650
I967
sV1868
p2651
I966
sV3726
p2652
I3031
sV3727
p2653
I3032
sV3720
p2654
I3025
sV3721
p2655
I3026
sV3722
p2656
I3027
sV3723
p2657
I3028
sV964
p2658
I4000
sV965
p2659
I4001
sV966
p2660
I4002
sV967
p2661
I4003
sV960
p2662
I3996
sV961
p2663
I3997
sV962
p2664
I3998
sV864
p2665
I3889
sV1613
p2666
I684
sV401
p2667
I3347
sV968
p2668
I4004
sV969
p2669
I4005
sV2109
p2670
I1235
sV2108
p2671
I1234
sV2103
p2672
I1229
sV2102
p2673
I1228
sV2101
p2674
I1227
sV2100
p2675
I1226
sV2107
p2676
I1233
sV2106
p2677
I1232
sV2105
p2678
I1231
sV2104
p2679
I1230
sV2639
p2680
I1823
sV2638
p2681
I1822
sV635
p2682
I3635
sV2635
p2683
I1819
sV2634
p2684
I1818
sV2637
p2685
I1821
sV2636
p2686
I1820
sV2631
p2687
I1815
sV2630
p2688
I1814
sV2633
p2689
I1817
sV2632
p2690
I1816
sV3765
p2691
I3074
sV3438
p2692
I2711
sV1537
p2693
I599
sV636
p2694
I3636
sV878
p2695
I3904
sV1536
p2696
I598
sV3430
p2697
I2703
sV3431
p2698
I2704
sV3432
p2699
I2705
sV3433
p2700
I2706
sV3434
p2701
I2707
sV1535
p2702
I597
sV3436
p2703
I2709
sV3437
p2704
I2710
sV2037
p2705
I1155
sV2036
p2706
I1154
sV2035
p2707
I1153
sV2034
p2708
I1152
sV2033
p2709
I1151
sV2032
p2710
I1150
sV2031
p2711
I1149
sV2030
p2712
I1148
sV2749
p2713
I1945
sV1533
p2714
I595
sV3483
p2715
I2761
sV2039
p2716
I1157
sV2038
p2717
I1156
sV890
p2718
I3918
sV891
p2719
I3919
sV637
p2720
I3637
sV893
p2721
I3921
sV894
p2722
I3922
sV1531
p2723
I593
sV896
p2724
I3924
sV897
p2725
I3925
sV898
p2726
I3926
sV899
p2727
I3927
sV1530
p2728
I592
sV3651
p2729
I2948
sV783
p2730
I3799
sV649
p2731
I3650
sV648
p2732
I3649
sV769
p2733
I3783
sV3236
p2734
I2487
sV3237
p2735
I2488
sV3544
p2736
I2829
sV3545
p2737
I2830
sV3546
p2738
I2831
sV3547
p2739
I2832
sV3540
p2740
I2825
sV3234
p2741
I2485
sV3542
p2742
I2827
sV262
p2743
I1802
sV3235
p2744
I2486
sV3548
p2745
I2833
sV3549
p2746
I2834
sV1964
p2747
I1073
sV422
p2748
I3399
sV430
p2749
I3408
sV1965
p2750
I1074
sV1966
p2751
I1075
sV1788
p2752
I877
sV1789
p2753
I878
sV2967
p2754
I2187
sV1967
p2755
I1076
sV2961
p2756
I2181
sV2960
p2757
I2180
sV2963
p2758
I2183
sV2962
p2759
I2182
sV1780
p2760
I869
sV1612
p2761
I683
sV1782
p2762
I871
sV1783
p2763
I872
sV1784
p2764
I873
sV1785
p2765
I874
sV1786
p2766
I875
sV1787
p2767
I876
sV3049
p2768
I2279
sV3048
p2769
I2278
sV1962
p2770
I1071
sV3041
p2771
I2271
sV3040
p2772
I2270
sV3043
p2773
I2273
sV1963
p2774
I1072
sV3045
p2775
I2275
sV3044
p2776
I2274
sV3047
p2777
I2277
sV3046
p2778
I2276
sV707
p2779
I3715
sV1078
p2780
I89
sV1079
p2781
I90
sV1076
p2782
I87
sV1077
p2783
I88
sV1074
p2784
I85
sV1075
p2785
I86
sV1072
p2786
I83
sV1073
p2787
I84
sV1070
p2788
I81
sV1071
p2789
I82
sV1678
p2790
I755
sV1679
p2791
I756
sV1674
p2792
I751
sV1675
p2793
I752
sV1676
p2794
I753
sV1677
p2795
I754
sV1670
p2796
I747
sV1671
p2797
I748
sV1672
p2798
I749
sV1673
p2799
I750
sV1094
p2800
I107
sV1095
p2801
I108
sV1096
p2802
I109
sV1097
p2803
I110
sV1090
p2804
I103
sV1091
p2805
I104
sV1092
p2806
I105
sV1534
p2807
I596
sV674
p2808
I3678
sV675
p2809
I3679
sV676
p2810
I3680
sV3965
p2811
I3296
sV1098
p2812
I111
sV1099
p2813
I112
sV672
p2814
I3676
sV673
p2815
I3677
sV3135
p2816
I2375
sV3134
p2817
I2374
sV3137
p2818
I2377
sV3136
p2819
I2376
sV3131
p2820
I2371
sV3130
p2821
I2370
sV3133
p2822
I2373
sV3132
p2823
I2372
sV3139
p2824
I2379
sV3138
p2825
I2378
sV645
p2826
I3646
sV855
p2827
I3879
sV1418
p2828
I467
sV1419
p2829
I468
sV2490
p2830
I1658
sV1410
p2831
I459
sV1411
p2832
I460
sV1412
p2833
I461
sV1413
p2834
I462
sV1414
p2835
I463
sV1415
p2836
I464
sV1416
p2837
I465
sV1417
p2838
I466
sV1322
p2839
I361
sV1323
p2840
I362
sV1320
p2841
I359
sV1532
p2842
I594
sV1326
p2843
I365
sV1327
p2844
I366
sV1324
p2845
I363
sV1325
p2846
I364
sV1328
p2847
I367
sV1329
p2848
I368
sV656
p2849
I3658
sV2496
p2850
I1664
sV647
p2851
I3648
sV857
p2852
I3881
sV2874
p2853
I2084
sV3618
p2854
I2911
sV1524
p2855
I585
sV1525
p2856
I586
sV1526
p2857
I587
sV1527
p2858
I588
sV1520
p2859
I581
sV1521
p2860
I582
sV1522
p2861
I583
sV1523
p2862
I584
sV1528
p2863
I589
sV1529
p2864
I590
sV1258
p2865
I289
sV1259
p2866
I290
sV308
p2867
I2313
sV309
p2868
I2324
sV3959
p2869
I3289
sV3958
p2870
I3288
sV652
p2871
I3654
sV300
p2872
I2225
sV301
p2873
I2236
sV302
p2874
I2247
sV303
p2875
I2258
sV304
p2876
I2269
sV305
p2877
I2280
sV306
p2878
I2291
sV307
p2879
I2302
sV2254
p2880
I1396
sV75
p2881
I3762
sV74
p2882
I3751
sV3340
p2883
I2603
sV71
p2884
I3718
sV70
p2885
I3707
sV988
p2886
I4026
sV3415
p2887
I2686
sV3056
p2888
I2287
sV989
p2889
I4027
sV3057
p2890
I2288
sV3054
p2891
I2285
sV3204
p2892
I2452
sV3055
p2893
I2286
sV472
p2894
I3454
sV3052
p2895
I2283
sV3412
p2896
I2683
sV3053
p2897
I2284
sV3050
p2898
I2281
sV983
p2899
I4021
sV3051
p2900
I2282
sV3603
p2901
I2895
sV3602
p2902
I2894
sV3601
p2903
I2893
sV3600
p2904
I2892
sV3607
p2905
I2899
sV3606
p2906
I2898
sV3605
p2907
I2897
sV3604
p2908
I2896
sV3609
p2909
I2901
sV3608
p2910
I2900
sV3413
p2911
I2684
sV927
p2912
I3959
sV985
p2913
I4023
sV623
p2914
I3622
sV470
p2915
I3452
sV2950
p2916
I2169
sV2358
p2917
I1511
sV2359
p2918
I1512
sV2352
p2919
I1505
sV2353
p2920
I1506
sV2350
p2921
I1503
sV2351
p2922
I1504
sV2356
p2923
I1509
sV2357
p2924
I1510
sV2354
p2925
I1507
sV2355
p2926
I1508
sV1898
p2927
I999
sV1899
p2928
I1000
sV3739
p2929
I3045
sV3738
p2930
I3044
sV1894
p2931
I995
sV1895
p2932
I996
sV1896
p2933
I997
sV1897
p2934
I998
sV1890
p2935
I991
sV1891
p2936
I992
sV1892
p2937
I993
sV1893
p2938
I994
sV2136
p2939
I1265
sV2137
p2940
I1266
sV2134
p2941
I1263
sV2135
p2942
I1264
sV2132
p2943
I1261
sV2133
p2944
I1262
sV2130
p2945
I1259
sV2131
p2946
I1260
sV951
p2947
I3986
sV950
p2948
I3985
sV953
p2949
I3988
sV952
p2950
I3987
sV955
p2951
I3990
sV954
p2952
I3989
sV2138
p2953
I1267
sV2139
p2954
I1268
sV477
p2955
I3459
sV2648
p2956
I1833
sV2649
p2957
I1834
sV2640
p2958
I1825
sV2641
p2959
I1826
sV2642
p2960
I1827
sV2643
p2961
I1828
sV2644
p2962
I1829
sV2645
p2963
I1830
sV2646
p2964
I1831
sV2647
p2965
I1832
sV474
p2966
I3456
sV854
p2967
I3878
sV3429
p2968
I2701
sV3428
p2969
I2700
sV3423
p2970
I2695
sV3422
p2971
I2694
sV3421
p2972
I2693
sV3420
p2973
I2692
sV3427
p2974
I2699
sV3426
p2975
I2698
sV3425
p2976
I2697
sV3424
p2977
I2696
sV2002
p2978
I1117
sV2003
p2979
I1118
sV2000
p2980
I1115
sV2001
p2981
I1116
sV2006
p2982
I1121
sV2007
p2983
I1122
sV2004
p2984
I1119
sV2005
p2985
I1120
sV3901
p2986
I3226
sV2008
p2987
I1123
sV2009
p2988
I1124
sV719
p2989
I3728
sV506
p2990
I3492
sV61
p2991
I3607
sV937
p2992
I3970
sV3026
p2993
I2254
sV718
p2994
I3727
sV507
p2995
I3493
sV3557
p2996
I2843
sV3556
p2997
I2842
sV3555
p2998
I2841
sV3554
p2999
I2840
sV3553
p3000
I2839
sV3552
p3001
I2838
sV3551
p3002
I2837
sV3550
p3003
I2836
sV3559
p3004
I2845
sV3558
p3005
I2844
sV667
p3006
I3670
sV666
p3007
I3669
sV717
p3008
I3726
sV919
p3009
I3950
sV504
p3010
I3490
sV665
p3011
I3668
sV918
p3012
I3949
sV2910
p3013
I2125
sV2911
p3014
I2126
sV1799
p3015
I889
sV1798
p3016
I888
sV2914
p3017
I2129
sV2915
p3018
I2130
sV2916
p3019
I2131
sV2917
p3020
I2132
sV1793
p3021
I883
sV1792
p3022
I882
sV1791
p3023
I881
sV1790
p3024
I880
sV1797
p3025
I887
sV1796
p3026
I886
sV1795
p3027
I885
sV1794
p3028
I884
sV915
p3029
I3946
sV3024
p3030
I2252
sV716
p3031
I3725
sV505
p3032
I3491
sV660
p3033
I3663
sV917
p3034
I3948
sV1069
p3035
I79
sV1068
p3036
I78
sV916
p3037
I3947
sV1061
p3038
I71
sV1060
p3039
I70
sV1063
p3040
I73
sV1062
p3041
I72
sV1065
p3042
I75
sV1064
p3043
I74
sV1067
p3044
I77
sV1066
p3045
I76
sV3023
p3046
I2251
sV1669
p3047
I745
sV1668
p3048
I744
sV1667
p3049
I743
sV1666
p3050
I742
sV1665
p3051
I741
sV1664
p3052
I740
sV1663
p3053
I739
sV1662
p3054
I738
sV1661
p3055
I737
sV1660
p3056
I736
sV1087
p3057
I99
sV1086
p3058
I98
sV1085
p3059
I97
sV1084
p3060
I96
sV1083
p3061
I95
sV1082
p3062
I94
sV1081
p3063
I93
sV1080
p3064
I92
sV599
p3065
I3594
sV598
p3066
I3593
sV1089
p3067
I101
sV1088
p3068
I100
sV3140
p3069
I2381
sV3022
p3070
I2250
sV3142
p3071
I2383
sV3143
p3072
I2384
sV2828
p3073
I2033
sV2829
p3074
I2034
sV3146
p3075
I2387
sV3147
p3076
I2388
sV2824
p3077
I2029
sV2825
p3078
I2030
sV2826
p3079
I2031
sV2827
p3080
I2032
sV2820
p3081
I2025
sV2821
p3082
I2026
sV2822
p3083
I2027
sV2823
p3084
I2028
sV3386
p3085
I2653
sV3387
p3086
I2654
sV3384
p3087
I2651
sV3385
p3088
I2652
sV3382
p3089
I2649
sV3383
p3090
I2650
sV3380
p3091
I2647
sV3381
p3092
I2648
sV3388
p3093
I2655
sV3389
p3094
I2656
sV713
p3095
I3722
sV1409
p3096
I457
sV1408
p3097
I456
sV1403
p3098
I451
sV1402
p3099
I450
sV1401
p3100
I449
sV1400
p3101
I448
sV1407
p3102
I455
sV1406
p3103
I454
sV1405
p3104
I453
sV1404
p3105
I452
sV692
p3106
I3698
sV449
p3107
I3428
sV448
p3108
I3427
sV1339
p3109
I379
sV1338
p3110
I378
sV693
p3111
I3699
sV1335
p3112
I375
sV1334
p3113
I374
sV1337
p3114
I377
sV1336
p3115
I376
sV1331
p3116
I371
sV1330
p3117
I370
sV1333
p3118
I373
sV1332
p3119
I372
sV65
p3120
I3651
sV691
p3121
I3697
sV696
p3122
I3702
sV697
p3123
I3703
sV3261
p3124
I2515
sV3201
p3125
I2449
sV38
p3126
I3112
sV694
p3127
I3700
sV3260
p3128
I2514
sV33
p3129
I2557
sV32
p3130
I2446
sV31
p3131
I2335
sV30
p3132
I2224
sV37
p3133
I3001
sV3263
p3134
I2517
sV35
p3135
I2779
sV34
p3136
I2668
sV1241
p3137
I271
sV1240
p3138
I270
sV1243
p3139
I273
sV1242
p3140
I272
sV1245
p3141
I275
sV1244
p3142
I274
sV1247
p3143
I277
sV1246
p3144
I276
sV1249
p3145
I279
sV1248
p3146
I278
sV3098
p3147
I2333
sV3099
p3148
I2334
sV3120
p3149
I2359
sV1539
p3150
I601
sV1538
p3151
I600
sV339
p3152
I2657
sV3267
p3153
I2521
sV335
p3154
I2613
sV334
p3155
I2602
sV337
p3156
I2635
sV3266
p3157
I2520
sV331
p3158
I2569
sV330
p3159
I2558
sV333
p3160
I2591
sV332
p3161
I2580
sV3125
p3162
I2364
sV3377
p3163
I2643
sV3898
p3164
I3221
sV3899
p3165
I3222
sV3892
p3166
I3215
sV3893
p3167
I3216
sV3890
p3168
I3213
sV3891
p3169
I3214
sV3896
p3170
I3219
sV3897
p3171
I3220
sV3894
p3172
I3217
sV3895
p3173
I3218
sV847
p3174
I3870
sV934
p3175
I3967
sV846
p3176
I3869
sV545
p3177
I3535
sV845
p3178
I3868
sV844
p3179
I3867
sV8
I3817
sV843
p3180
I3866
sV842
p3181
I3865
sV841
p3182
I3864
sV840
p3183
I3863
sV3375
p3184
I2641
sV3966
p3185
I3297
sV3967
p3186
I3298
sV3964
p3187
I3295
sV1636
p3188
I709
sV3962
p3189
I3293
sV3963
p3190
I3294
sV3960
p3191
I3291
sV3961
p3192
I3292
sV3200
p3193
I2448
sV361
p3194
I2902
sV3968
p3195
I3299
sV3969
p3196
I3300
sV2854
p3197
I2062
sV3638
p3198
I2933
sV3639
p3199
I2934
sV3636
p3200
I2931
sV3637
p3201
I2932
sV3634
p3202
I2929
sV3635
p3203
I2930
sV3632
p3204
I2927
sV3633
p3205
I2928
sV3630
p3206
I2925
sV3631
p3207
I2926
sV849
p3208
I3872
sV848
p3209
I3871
sV2345
p3210
I1497
sV2344
p3211
I1496
sV2347
p3212
I1499
sV2346
p3213
I1498
sV2341
p3214
I1493
sV2340
p3215
I1492
sV2343
p3216
I1495
sV2342
p3217
I1494
sV2349
p3218
I1501
sV2348
p3219
I1500
sV3253
p3220
I2506
sV3708
p3221
I3011
sV3709
p3222
I3012
sV1889
p3223
I989
sV1888
p3224
I988
sV1887
p3225
I987
sV1886
p3226
I986
sV1885
p3227
I985
sV1884
p3228
I984
sV1883
p3229
I983
sV1882
p3230
I982
sV1881
p3231
I981
sV1880
p3232
I980
sV2121
p3233
I1249
sV2120
p3234
I1248
sV2123
p3235
I1251
sV2122
p3236
I1250
sV2125
p3237
I1253
sV2124
p3238
I1252
sV2127
p3239
I1255
sV2126
p3240
I1254
sV2129
p3241
I1257
sV2128
p3242
I1256
sV944
p3243
I3978
sV945
p3244
I3979
sV942
p3245
I3976
sV943
p3246
I3977
sV940
p3247
I3974
sV941
p3248
I3975
sV569
p3249
I3561
sV2659
p3250
I1845
sV2658
p3251
I1844
sV642
p3252
I3643
sV565
p3253
I3557
sV2653
p3254
I1839
sV2652
p3255
I1838
sV2651
p3256
I1837
sV2650
p3257
I1836
sV2657
p3258
I1843
sV2656
p3259
I1842
sV2655
p3260
I1841
sV2654
p3261
I1840
sV133
p3262
I369
sV132
p3263
I358
sV131
p3264
I347
sV130
p3265
I336
sV137
p3266
I413
sV136
p3267
I402
sV135
p3268
I391
sV134
p3269
I380
sV139
p3270
I435
sV138
p3271
I424
sV3418
p3272
I2689
sV3419
p3273
I2690
sV410
p3274
I3386
sV2019
p3275
I1135
sV2018
p3276
I1134
sV2015
p3277
I1131
sV2014
p3278
I1130
sV2017
p3279
I1133
sV2016
p3280
I1132
sV2011
p3281
I1127
sV2010
p3282
I1126
sV2013
p3283
I1129
sV2012
p3284
I1128
sV402
p3285
I3358
sV3562
p3286
I2849
sV3563
p3287
I2850
sV3560
p3288
I2847
sV3561
p3289
I2848
sV3566
p3290
I2853
sV3567
p3291
I2854
sV3564
p3292
I2851
sV3565
p3293
I2852
sV3034
p3294
I2263
sV3568
p3295
I2855
sV3569
p3296
I2856
sV2903
p3297
I2117
sV2902
p3298
I2116
sV2901
p3299
I2115
sV2900
p3300
I2114
sV2907
p3301
I2121
sV2906
p3302
I2120
sV2905
p3303
I2119
sV2904
p3304
I2118
sV704
p3305
I3712
sV705
p3306
I3713
sV2909
p3307
I2123
sV2908
p3308
I2122
sV700
p3309
I3708
sV701
p3310
I3709
sV702
p3311
I3710
sV703
p3312
I3711
sV88
p3313
I3906
sV89
p3314
I3917
sV82
p3315
I3840
sV83
p3316
I3851
sV80
p3317
I3818
sV81
p3318
I3829
sV86
p3319
I3884
sV87
p3320
I3895
sV84
p3321
I3862
sV85
p3322
I3873
sV762
p3323
I3776
sV1658
p3324
I733
sV1659
p3325
I734
sV601
p3326
I3598
sV1652
p3327
I727
sV1653
p3328
I728
sV1650
p3329
I725
sV1651
p3330
I726
sV1656
p3331
I731
sV1657
p3332
I732
sV1654
p3333
I729
sV1655
p3334
I730
sV586
p3335
I3580
sV1630
p3336
I703
sV584
p3337
I3578
sV585
p3338
I3579
sV582
p3339
I3576
sV583
p3340
I3577
sV580
p3341
I3574
sV1631
p3342
I704
sV1632
p3343
I705
sV588
p3344
I3582
sV589
p3345
I3583
sV3153
p3346
I2395
sV3152
p3347
I2394
sV3151
p3348
I2393
sV1633
p3349
I706
sV3157
p3350
I2399
sV3156
p3351
I2398
sV2839
p3352
I2045
sV2838
p3353
I2044
sV2837
p3354
I2043
sV1634
p3355
I707
sV2835
p3356
I2041
sV2834
p3357
I2040
sV2833
p3358
I2039
sV2832
p3359
I2038
sV2831
p3360
I2037
sV1635
p3361
I708
sV1436
p3362
I487
sV1437
p3363
I488
sV1434
p3364
I485
sV1435
p3365
I486
sV1432
p3366
I483
sV1433
p3367
I484
sV1430
p3368
I481
sV1431
p3369
I482
sV3399
p3370
I2667
sV3398
p3371
I2666
sV1637
p3372
I710
sV1438
p3373
I489
sV1439
p3374
I490
sV59
p3375
I3584
sV1348
p3376
I389
sV1349
p3377
I390
sV514
p3378
I3501
sV1340
p3379
I381
sV1341
p3380
I382
sV1342
p3381
I383
sV1343
p3382
I384
sV1344
p3383
I385
sV1345
p3384
I386
sV1346
p3385
I387
sV1347
p3386
I388
sV3702
p3387
I3005
sV3703
p3388
I3006
sV564
p3389
I3556
sV3700
p3390
I3003
sV766
p3391
I3780
sV3701
p3392
I3004
sV79
p3393
I3806
sV3368
p3394
I2633
sV3706
p3395
I3009
sV832
p3396
I3854
sV3707
p3397
I3010
sV1502
p3398
I561
sV1503
p3399
I562
sV1500
p3400
I559
sV1501
p3401
I560
sV1506
p3402
I565
sV1507
p3403
I566
sV1504
p3404
I563
sV1505
p3405
I564
sV3085
p3406
I2319
sV3084
p3407
I2318
sV1508
p3408
I567
sV1509
p3409
I568
sV3081
p3410
I2315
sV3080
p3411
I2314
sV3083
p3412
I2317
sV3082
p3413
I2316
sV3943
p3414
I3272
sV3944
p3415
I3273
sV3945
p3416
I3274
sV3946
p3417
I3275
sV3947
p3418
I3276
sV1992
p3419
I1104
sV3884
p3420
I3206
sV3887
p3421
I3209
sV3886
p3422
I3208
sV3881
p3423
I3203
sV3880
p3424
I3202
sV3883
p3425
I3205
sV3882
p3426
I3204
sV55
p3427
I3540
sV949
p3428
I3983
sV3889
p3429
I3211
sV3888
p3430
I3210
sV946
p3431
I3980
sV947
p3432
I3981
sV631
p3433
I3631
sV568
p3434
I3560
sV495
p3435
I3479
sV831
p3436
I3853
sV54
p3437
I3529
sV4008
p3438
I3345
sV4009
p3439
I3346
sV57
p3440
I3562
sV4000
p3441
I3337
sV4001
p3442
I3338
sV4002
p3443
I3339
sV4003
p3444
I3340
sV4004
p3445
I3341
sV4005
p3446
I3342
sV4006
p3447
I3343
sV4007
p3448
I3344
sV322
p3449
I2469
sV323
p3450
I2480
sV320
p3451
I2447
sV321
p3452
I2458
sV326
p3453
I2513
sV327
p3454
I2524
sV324
p3455
I2491
sV325
p3456
I2502
sV3979
p3457
I3311
sV3978
p3458
I3310
sV328
p3459
I2535
sV329
p3460
I2546
sV3365
p3461
I2630
sV3629
p3462
I2923
sV3628
p3463
I2922
sV56
p3464
I3551
sV3621
p3465
I2915
sV3620
p3466
I2914
sV3623
p3467
I2917
sV3622
p3468
I2916
sV3625
p3469
I2919
sV3624
p3470
I2918
sV3627
p3471
I2921
sV3626
p3472
I2920
sV2330
p3473
I1481
sV2331
p3474
I1482
sV2332
p3475
I1483
sV2333
p3476
I1484
sV2334
p3477
I1485
sV2335
p3478
I1486
sV2336
p3479
I1487
sV2337
p3480
I1488
sV2338
p3481
I1489
sV2339
p3482
I1490
sV3072
p3483
I2305
sV3073
p3484
I2306
sV1995
p3485
I1107
sV2958
p3486
I2177
sV835
p3487
I3857
sV2959
p3488
I2178
sV3715
p3489
I3019
sV3714
p3490
I3018
sV3717
p3491
I3021
sV3716
p3492
I3020
sV3711
p3493
I3015
sV3076
p3494
I2309
sV3713
p3495
I3017
sV3712
p3496
I3016
sV3077
p3497
I2310
sV3719
p3498
I3023
sV3718
p3499
I3022
sV3078
p3500
I2311
sV3079
p3501
I2312
sV53
p3502
I3518
sV2488
p3503
I1655
sV2489
p3504
I1656
sV2486
p3505
I1653
sV2487
p3506
I1654
sV2484
p3507
I1651
sV2485
p3508
I1652
sV2482
p3509
I1649
sV2483
p3510
I1650
sV2480
p3511
I1647
sV2481
p3512
I1648
sV3252
p3513
I2505
sV2248
p3514
I1389
sV2249
p3515
I1390
sV2244
p3516
I1385
sV2245
p3517
I1386
sV2246
p3518
I1387
sV2247
p3519
I1388
sV2240
p3520
I1381
sV2241
p3521
I1382
sV2242
p3522
I1383
sV2243
p3523
I1384
sV2464
p3524
I1629
sV2465
p3525
I1630
sV2466
p3526
I1631
sV2467
p3527
I1632
sV2460
p3528
I1625
sV2461
p3529
I1626
sV2462
p3530
I1627
sV2463
p3531
I1628
sV369
p3532
I2990
sV2468
p3533
I1633
sV2469
p3534
I1634
sV120
p3535
I225
sV121
p3536
I236
sV122
p3537
I247
sV123
p3538
I258
sV124
p3539
I269
sV125
p3540
I280
sV126
p3541
I291
sV127
p3542
I302
sV128
p3543
I313
sV129
p3544
I324
sV3416
p3545
I2687
sV520
p3546
I3508
sV3379
p3547
I2645
sV3417
p3548
I2688
sV3378
p3549
I2644
sV3414
p3550
I2685
sV2068
p3551
I1189
sV2069
p3552
I1190
sV2798
p3553
I1999
sV2799
p3554
I2000
sV3376
p3555
I2642
sV2060
p3556
I1181
sV2061
p3557
I1182
sV2062
p3558
I1183
sV2063
p3559
I1184
sV2064
p3560
I1185
sV2065
p3561
I1186
sV2066
p3562
I1187
sV2067
p3563
I1188
sV521
p3564
I3509
sV3374
p3565
I2640
sV3410
p3566
I2681
sV3373
p3567
I2639
sV3411
p3568
I2682
sV3255
p3569
I2508
sV3372
p3570
I2638
sV3371
p3571
I2637
sV3370
p3572
I2636
sV3579
p3573
I2867
sV3578
p3574
I2866
sV3575
p3575
I2863
sV3574
p3576
I2862
sV3577
p3577
I2865
sV3576
p3578
I2864
sV3571
p3579
I2859
sV3570
p3580
I2858
sV3573
p3581
I2861
sV3572
p3582
I2860
sV2666
p3583
I1853
sV2667
p3584
I1854
sV2664
p3585
I1851
sV2665
p3586
I1852
sV2662
p3587
I1849
sV2663
p3588
I1850
sV2660
p3589
I1847
sV2661
p3590
I1848
sV722
p3591
I3732
sV2668
p3592
I1855
sV2669
p3593
I1856
sV2938
p3594
I2155
sV2939
p3595
I2156
sV2936
p3596
I2153
sV2937
p3597
I2154
sV2934
p3598
I2151
sV2935
p3599
I2152
sV2932
p3600
I2149
sV2933
p3601
I2150
sV2930
p3602
I2147
sV2931
p3603
I2148
sV948
p3604
I3982
sV3799
p3605
I3111
sV3595
p3606
I2885
sV1645
p3607
I719
sV1644
p3608
I718
sV1647
p3609
I721
sV1646
p3610
I720
sV1641
p3611
I715
sV1640
p3612
I714
sV1643
p3613
I717
sV1642
p3614
I716
sV1649
p3615
I723
sV1648
p3616
I722
sV728
p3617
I3738
sV3794
p3618
I3106
sV792
p3619
I3809
sV729
p3620
I3739
sV3797
p3621
I3109
sV579
p3622
I3572
sV3796
p3623
I3108
sV573
p3624
I3566
sV572
p3625
I3565
sV571
p3626
I3564
sV570
p3627
I3563
sV577
p3628
I3570
sV576
p3629
I3569
sV575
p3630
I3568
sV574
p3631
I3567
sV2808
p3632
I2011
sV2809
p3633
I2012
sV3793
p3634
I3105
sV3168
p3635
I2411
sV3169
p3636
I2412
sV2802
p3637
I2005
sV2803
p3638
I2006
sV2800
p3639
I2003
sV2801
p3640
I2004
sV2806
p3641
I2009
sV2807
p3642
I2010
sV2804
p3643
I2007
sV2805
p3644
I2008
sV1421
p3645
I471
sV1420
p3646
I470
sV1997
p3647
I1109
sV1422
p3648
I472
sV1425
p3649
I475
sV1424
p3650
I474
sV1427
p3651
I477
sV1426
p3652
I476
sV1429
p3653
I479
sV1428
p3654
I478
sV3366
p3655
I2631
sV3367
p3656
I2632
sV3360
p3657
I2625
sV2404
p3658
I1563
sV3362
p3659
I2627
sV3363
p3660
I2628
sV731
p3661
I3742
sV730
p3662
I3741
sV733
p3663
I3744
sV2405
p3664
I1564
sV735
p3665
I3746
sV734
p3666
I3745
sV737
p3667
I3748
sV736
p3668
I3747
sV739
p3669
I3750
sV2402
p3670
I1561
sV2403
p3671
I1562
sV1359
p3672
I401
sV1358
p3673
I400
sV469
p3674
I3450
sV2400
p3675
I1559
sV1353
p3676
I395
sV1352
p3677
I394
sV1351
p3678
I393
sV1350
p3679
I392
sV1357
p3680
I399
sV1356
p3681
I398
sV1355
p3682
I397
sV1354
p3683
I396
sV3224
p3684
I2474
sV936
p3685
I3969
sV1519
p3686
I579
sV1518
p3687
I578
sV3392
p3688
I2660
sV1515
p3689
I575
sV1514
p3690
I574
sV1517
p3691
I577
sV1516
p3692
I576
sV1511
p3693
I571
sV1510
p3694
I570
sV1513
p3695
I573
sV1512
p3696
I572
sV959
p3697
I3994
sV3439
p3698
I2712
sV958
p3699
I3993
sV280
p3700
I2002
sV3184
p3701
I2429
sV3185
p3702
I2430
sV3186
p3703
I2431
sV3187
p3704
I2432
sV3180
p3705
I2425
sV3181
p3706
I2426
sV3182
p3707
I2427
sV3183
p3708
I2428
sV3188
p3709
I2433
sV3189
p3710
I2434
sV3397
p3711
I2665
sV617
p3712
I3615
sV4019
p3713
I3357
sV4018
p3714
I3356
sV4013
p3715
I3351
sV4012
p3716
I3350
sV4011
p3717
I3349
sV4010
p3718
I3348
sV4017
p3719
I3355
sV4016
p3720
I3354
sV4015
p3721
I3353
sV3396
p3722
I2664
sV357
p3723
I2857
sV356
p3724
I2846
sV355
p3725
I2835
sV354
p3726
I2824
sV353
p3727
I2813
sV352
p3728
I2802
sV351
p3729
I2791
sV350
p3730
I2780
sV3984
p3731
I3317
sV3985
p3732
I3318
sV3986
p3733
I3319
sV3987
p3734
I3320
sV3980
p3735
I3313
sV3981
p3736
I3314
sV359
p3737
I2879
sV358
p3738
I2868
sV45
p3739
I3429
sV3612
p3740
I2905
sV43
p3741
I3407
sV3613
p3742
I2906
sV2323
p3743
I1473
sV1111
p3744
I127
sV2321
p3745
I1471
sV2320
p3746
I1470
sV2327
p3747
I1477
sV2326
p3748
I1476
sV2325
p3749
I1475
sV1110
p3750
I126
sV2329
p3751
I1479
sV2328
p3752
I1478
sV1445
p3753
I497
sV484
p3754
I3467
sV289
p3755
I2101
sV288
p3756
I2090
sV1444
p3757
I496
sV3619
p3758
I2912
sV281
p3759
I2013
sV1115
p3760
I131
sV283
p3761
I2035
sV282
p3762
I2024
sV285
p3763
I2057
sV284
p3764
I2046
sV287
p3765
I2079
sV1114
p3766
I130
sV3760
p3767
I3069
sV3761
p3768
I3070
sV3762
p3769
I3071
sV3763
p3770
I3072
sV3764
p3771
I3073
sV1441
p3772
I493
sV3766
p3773
I3075
sV3767
p3774
I3076
sV3768
p3775
I3077
sV3769
p3776
I3078
sV1116
p3777
I132
sV900
p3778
I3930
sV263
p3779
I1813
sV1560
p3780
I625
sV261
p3781
I1791
sV260
p3782
I1780
sV267
p3783
I1857
sV266
p3784
I1846
sV265
p3785
I1835
sV1293
p3786
I328
sV286
p3787
I2068
sV269
p3788
I1879
sV268
p3789
I1868
sV1290
p3790
I325
sV2499
p3791
I1667
sV2498
p3792
I1666
sV1563
p3793
I628
sV3225
p3794
I2475
sV2491
p3795
I1659
sV1296
p3796
I331
sV2493
p3797
I1661
sV2492
p3798
I1660
sV2495
p3799
I1663
sV2494
p3800
I1662
sV2497
p3801
I1665
sV1297
p3802
I332
sV259
p3803
I1768
sV1294
p3804
I329
sV2259
p3805
I1401
sV2258
p3806
I1400
sV2257
p3807
I1399
sV2256
p3808
I1398
sV2255
p3809
I1397
sV1295
p3810
I330
sV2253
p3811
I1395
sV2252
p3812
I1394
sV2251
p3813
I1393
sV2250
p3814
I1392
sV2477
p3815
I1643
sV2476
p3816
I1642
sV2475
p3817
I1641
sV2474
p3818
I1640
sV2473
p3819
I1639
sV2472
p3820
I1638
sV2471
p3821
I1637
sV2470
p3822
I1636
sV982
p3823
I4020
sV957
p3824
I3992
sV980
p3825
I4018
sV981
p3826
I4019
sV986
p3827
I4024
sV987
p3828
I4025
sV2479
p3829
I1645
sV2478
p3830
I1644
sV115
p3831
I169
sV114
p3832
I158
sV117
p3833
I191
sV116
p3834
I180
sV111
p3835
I125
sV110
p3836
I114
sV113
p3837
I147
sV112
p3838
I136
sV119
p3839
I213
sV118
p3840
I202
sV2785
p3841
I1985
sV2784
p3842
I1984
sV2787
p3843
I1987
sV2786
p3844
I1986
sV2781
p3845
I1981
sV2780
p3846
I1980
sV2783
p3847
I1983
sV2782
p3848
I1982
sV2789
p3849
I1989
sV2788
p3850
I1988
sV2079
p3851
I1201
sV2078
p3852
I1200
sV2073
p3853
I1195
sV2072
p3854
I1194
sV2071
p3855
I1193
sV2070
p3856
I1192
sV2077
p3857
I1199
sV2076
p3858
I1198
sV2075
p3859
I1197
sV2074
p3860
I1196
sV3221
p3861
I2471
sV3508
p3862
I2789
sV3509
p3863
I2790
sV3500
p3864
I2781
sV3501
p3865
I2782
sV3502
p3866
I2783
sV3503
p3867
I2784
sV3504
p3868
I2785
sV3505
p3869
I2786
sV3506
p3870
I2787
sV3507
p3871
I2788
sV2671
p3872
I1859
sV2670
p3873
I1858
sV2673
p3874
I1861
sV2672
p3875
I1860
sV2675
p3876
I1863
sV2674
p3877
I1862
sV2677
p3878
I1865
sV2676
p3879
I1864
sV2679
p3880
I1867
sV2678
p3881
I1866
sV3220
p3882
I2470
sV52
p3883
I3507
sV2929
p3884
I2145
sV2928
p3885
I2144
sV4027
p3886
I3366
sV2921
p3887
I2137
sV2920
p3888
I2136
sV2923
p3889
I2139
sV2922
p3890
I2138
sV2925
p3891
I2141
sV2924
p3892
I2140
sV2927
p3893
I2143
sV2926
p3894
I2142
sV487
p3895
I3470
sV3223
p3896
I2473
sV709
p3897
I3717
sV1986
p3898
I1097
sV1987
p3899
I1098
sV1984
p3900
I1095
sV1985
p3901
I1096
sV1982
p3902
I1093
sV1983
p3903
I1094
sV1980
p3904
I1091
sV1981
p3905
I1092
sV1638
p3906
I711
sV1639
p3907
I712
sV530
p3908
I3519
sV3218
p3909
I2467
sV3219
p3910
I2468
sV1988
p3911
I1099
sV1989
p3912
I1100
sV3222
p3913
I2472
sV587
p3914
I3581
sV706
p3915
I3714
sV2815
p3916
I2019
sV2814
p3917
I2018
sV2817
p3918
I2021
sV2816
p3919
I2020
sV2811
p3920
I2015
sV2810
p3921
I2014
sV2813
p3922
I2017
sV2812
p3923
I2016
sV560
p3924
I3552
sV561
p3925
I3553
sV562
p3926
I3554
sV563
p3927
I3555
sV2819
p3928
I2023
sV2818
p3929
I2022
sV566
p3930
I3558
sV567
p3931
I3559
sV3179
p3932
I2423
sV3178
p3933
I2422
sV3171
p3934
I2415
sV3170
p3935
I2414
sV3173
p3936
I2417
sV3172
p3937
I2416
sV3175
p3938
I2419
sV3174
p3939
I2418
sV3177
p3940
I2421
sV3176
p3941
I2420
sV659
p3942
I3661
sV1188
p3943
I211
sV1189
p3944
I212
sV1186
p3945
I209
sV1187
p3946
I210
sV1184
p3947
I207
sV1185
p3948
I208
sV1182
p3949
I205
sV1183
p3950
I206
sV1180
p3951
I203
sV1181
p3952
I204
sV726
p3953
I3736
sV727
p3954
I3737
sV724
p3955
I3734
sV725
p3956
I3735
sV1748
p3957
I833
sV1749
p3958
I834
sV720
p3959
I3730
sV721
p3960
I3731
sV1744
p3961
I829
sV1745
p3962
I830
sV1746
p3963
I831
sV1747
p3964
I832
sV1740
p3965
I825
sV1741
p3966
I826
sV1742
p3967
I827
sV1743
p3968
I828
sV1164
p3969
I185
sV1165
p3970
I186
sV1166
p3971
I187
sV1167
p3972
I188
sV1160
p3973
I181
sV1161
p3974
I182
sV1162
p3975
I183
sV1163
p3976
I184
sV3309
p3977
I2568
sV1168
p3978
I189
sV1169
p3979
I190
sV3092
p3980
I2327
sV3304
p3981
I2563
sV3197
p3982
I2443
sV3305
p3983
I2564
sV48
p3984
I3462
sV3196
p3985
I2442
sV46
p3986
I3440
sV47
p3987
I3451
sV44
p3988
I3418
sV3786
p3989
I3097
sV42
p3990
I3396
sV3195
p3991
I2441
sV40
p3992
I3335
sV41
p3993
I3385
sV1568
p3994
I633
sV1569
p3995
I634
sV1298
p3996
I333
sV1299
p3997
I334
sV1292
p3998
I327
sV1561
p3999
I626
sV1562
p4000
I627
sV1291
p4001
I326
sV1564
p4002
I629
sV1565
p4003
I630
sV1566
p4004
I631
sV1567
p4005
I632
sV797
p4006
I3814
sV3191
p4007
I2437
sV796
p4008
I3813
sV591
p4009
I3586
sV3190
p4010
I2436
sV795
p4011
I3812
sV794
p4012
I3811
sV793
p4013
I3810
sV3698
p4014
I2999
sV479
p4015
I3461
sV791
p4016
I3808
sV590
p4017
I3585
sV790
p4018
I3807
sV1366
p4019
I409
sV1367
p4020
I410
sV1364
p4021
I407
sV1365
p4022
I408
sV1362
p4023
I405
sV1363
p4024
I406
sV1360
p4025
I403
sV1361
p4026
I404
sV3728
p4027
I3033
sV478
p4028
I3460
sV3198
p4029
I2444
sV3699
p4030
I3000
sV1368
p4031
I411
sV1369
p4032
I412
ssS'num_neg_train_edges'
p4033
I44113
sS'num_neg_test_edges'
p4034
I44121
sS'original_num_nodes'
p4035
I4039
sS'largest_cc_num_nodes'
p4036
I4039
sS'num_pos_test_edges'
p4037
I44121
sS'num_pos_train_edges'
p4038
I44113
s.