(dp1
S'index'
p2
(dp3
V35236
p4
I3441
sV4446
p5
I4711
sV28997
p6
I2637
sV28991
p7
I2636
sV28998
p8
I2638
sV51269
p9
I5731
sV51268
p10
I5730
sV51266
p11
I5729
sV51264
p12
I5728
sV51263
p13
I5727
sV19390
p14
I1285
sV61178
p15
I7122
sV48898
p16
I5354
sV36605
p17
I3584
sV22264
p18
I1678
sV61170
p19
I7118
sV40140
p20
I4107
sV48891
p21
I5351
sV48896
p22
I5353
sV61176
p23
I7121
sV48895
p24
I5352
sV25060
p25
I2095
sV43879
p26
I4647
sV25064
p27
I2096
sV25065
p28
I2097
sV55610
p29
I6333
sV6796
p30
I8082
sV46139
p31
I4944
sV56120
p32
I6417
sV56127
p33
I6419
sV56126
p34
I6418
sV57295
p35
I6582
sV57296
p36
I6583
sV25289
p37
I2135
sV25287
p38
I2134
sV25285
p39
I2133
sV25280
p40
I2131
sV25281
p41
I2132
sV273
p42
I2414
sV19977
p43
I1341
sV19974
p44
I1340
sV278
p45
I2470
sV279
p46
I2487
sV51848
p47
I5820
sV55838
p48
I6368
sV12019
p49
I328
sV22483
p50
I1701
sV22482
p51
I1700
sV12015
p52
I326
sV12016
p53
I327
sV26394
p54
I2270
sV52463
p55
I5901
sV52464
p56
I5902
sV26398
p57
I2271
sV57479
p58
I6607
sV53733
p59
I6091
sV53737
p60
I6094
sV53736
p61
I6093
sV53735
p62
I6092
sV57473
p63
I6606
sV65505
p64
I7745
sV46791
p65
I5045
sV46790
p66
I5044
sV24886
p67
I2075
sV24885
p68
I2074
sV24888
p69
I2076
sV49563
p70
I5462
sV26021
p71
I2237
sV5983
p72
I6917
sV45446
p73
I4862
sV26028
p74
I2238
sV64908
p75
I7640
sV64909
p76
I7641
sV5981
p77
I6913
sV44791
p78
I4765
sV46869
p79
I5062
sV24089
p80
I1968
sV24088
p81
I1967
sV37799
p82
I3733
sV46861
p83
I5059
sV49300
p84
I5422
sV49303
p85
I5424
sV58076
p86
I6670
sV46865
p87
I5060
sV24086
p88
I1966
sV46866
p89
I5061
sV68179
p90
I8117
sV38500
p91
I3852
sV38507
p92
I3855
sV38505
p93
I3854
sV38504
p94
I3853
sV3511
p95
I3417
sV68177
p96
I8115
sV68176
p97
I8114
sV68175
p98
I8113
sV2689
p99
I2349
sV2680
p100
I2341
sV62885
p101
I7372
sV68280
p102
I8127
sV62882
p103
I7371
sV58211
p104
I6693
sV58210
p105
I6692
sV97
p106
I8590
sV30411
p107
I2774
sV30413
p108
I2776
sV30412
p109
I2775
sV30416
p110
I2777
sV61174
p111
I7120
sV36156
p112
I3525
sV36154
p113
I3524
sV13052
p114
I472
sV66778
p115
I7930
sV57492
p116
I6608
sV33856
p117
I3240
sV33857
p118
I3241
sV54178
p119
I6157
sV62085
p120
I7247
sV62086
p121
I7248
sV62083
p122
I7246
sV20253
p123
I1389
sV44427
p124
I4704
sV67108
p125
I7979
sV29769
p126
I2706
sV29439
p127
I2681
sV67101
p128
I7978
sV21313
p129
I1538
sV29761
p130
I2703
sV29763
p131
I2705
sV29762
p132
I2704
sV1176
p133
I302
sV1174
p134
I296
sV1171
p135
I292
sV23055
p136
I1788
sV23054
p137
I1787
sV23057
p138
I1789
sV40327
p139
I4133
sV47212
p140
I5113
sV47817
p141
I5217
sV39598
p142
I4030
sV7188
p143
I8226
sV7181
p144
I8221
sV7182
p145
I8222
sV7183
p146
I8223
sV7186
p147
I8224
sV29106
p148
I2649
sV65880
p149
I7808
sV8016
p150
I8341
sV65882
p151
I7809
sV8014
p152
I8340
sV8012
p153
I8339
sV44934
p154
I4786
sV44937
p155
I4788
sV44936
p156
I4787
sV26629
p157
I2307
sV66505
p158
I7886
sV50417
p159
I5582
sV50416
p160
I5581
sV50415
p161
I5580
sV65086
p162
I7661
sV65087
p163
I7662
sV65088
p164
I7663
sV65089
p165
I7664
sV55625
p166
I6334
sV10882
p167
I164
sV46569
p168
I5012
sV50677
p169
I5628
sV50673
p170
I5627
sV59260
p171
I6849
sV26563
p172
I2298
sV50679
p173
I5629
sV66761
p174
I7929
sV24706
p175
I2045
sV24702
p176
I2044
sV61232
p177
I7134
sV59730
p178
I6903
sV61238
p179
I7136
sV59885
p180
I6930
sV22016
p181
I1638
sV22017
p182
I1639
sV22014
p183
I1636
sV22015
p184
I1637
sV31908
p185
I2993
sV31909
p186
I2994
sV4727
p187
I5126
sV31907
p188
I2992
sV4723
p189
I5118
sV16064
p190
I850
sV16060
p191
I849
sV19703
p192
I1309
sV11281
p193
I246
sV11282
p194
I247
sV11286
p195
I248
sV56821
p196
I6521
sV4621
p197
I4949
sV4623
p198
I4950
sV59889
p199
I6931
sV2336
p200
I1841
sV41823
p201
I4365
sV41826
p202
I4366
sV11757
p203
I300
sV53676
p204
I6079
sV11755
p205
I299
sV43686
p206
I4608
sV43687
p207
I4609
sV11759
p208
I301
sV63909
p209
I7497
sV54044
p210
I6135
sV63907
p211
I7496
sV63905
p212
I7495
sV63904
p213
I7494
sV51108
p214
I5690
sV51109
p215
I5691
sV62508
p216
I7299
sV20732
p217
I1447
sV20883
p218
I1475
sV62500
p219
I7298
sV179
p220
I1105
sV178
p221
I1088
sV177
p222
I1077
sV176
p223
I1065
sV175
p224
I1050
sV60010
p225
I6949
sV47153
p226
I5109
sV57297
p227
I6584
sV49172
p228
I5401
sV49173
p229
I5402
sV42481
p230
I4461
sV21286
p231
I1534
sV42486
p232
I4462
sV49174
p233
I5403
sV21937
p234
I1621
sV42330
p235
I4435
sV45651
p236
I4898
sV35119
p237
I3423
sV45879
p238
I4927
sV45878
p239
I4926
sV57084
p240
I6551
sV57082
p241
I6550
sV16934
p242
I979
sV16933
p243
I978
sV38150
p244
I3798
sV12227
p245
I349
sV51840
p246
I5818
sV6210
p247
I7253
sV32017
p248
I3016
sV12228
p249
I350
sV6218
p250
I7254
sV41179
p251
I4273
sV41172
p252
I4271
sV15874
p253
I823
sV51844
p254
I5819
sV41176
p255
I4272
sV6814
p256
I8108
sV59621
p257
I6884
sV9757
p258
I8596
sV29373
p259
I2675
sV10579
p260
I115
sV10574
p261
I113
sV10576
p262
I114
sV53501
p263
I6055
sV53502
p264
I6056
sV10573
p265
I112
sV63279
p266
I7415
sV21427
p267
I1550
sV24144
p268
I1976
sV37303
p269
I3671
sV63273
p270
I7413
sV63272
p271
I7412
sV58932
p272
I6800
sV24148
p273
I1977
sV58933
p274
I6801
sV41831
p275
I4368
sV56834
p276
I6522
sV58935
p277
I6802
sV32465
p278
I3069
sV54278
p279
I6174
sV7668
p280
I8298
sV40081
p281
I4096
sV40080
p282
I4095
sV54275
p283
I6173
sV58687
p284
I6754
sV37163
p285
I3650
sV37164
p286
I3651
sV37165
p287
I3652
sV37168
p288
I3653
sV18534
p289
I1187
sV58689
p290
I6755
sV41687
p291
I4353
sV41688
p292
I4354
sV1767
p293
I1070
sV1765
p294
I1068
sV29596
p295
I2689
sV29595
p296
I2688
sV40221
p297
I4115
sV40222
p298
I4116
sV67377
p299
I8014
sV40559
p300
I4173
sV29599
p301
I2690
sV37295
p302
I3670
sV24558
p303
I2026
sV50084
p304
I5531
sV50085
p305
I5532
sV14342
p306
I620
sV11119
p307
I216
sV47681
p308
I5199
sV28356
p309
I2557
sV28426
p310
I2566
sV28421
p311
I2565
sV14477
p312
I643
sV14476
p313
I642
sV34305
p314
I3311
sV24866
p315
I2069
sV59085
p316
I6816
sV13840
p317
I575
sV13843
p318
I577
sV13842
p319
I576
sV50884
p320
I5660
sV19100
p321
I1246
sV51036
p322
I5680
sV38365
p323
I3826
sV38364
p324
I3825
sV38361
p325
I3824
sV38369
p326
I3827
sV17921
p327
I1111
sV35215
p328
I3438
sV35216
p329
I3439
sV35211
p330
I3437
sV20741
p331
I1449
sV20743
p332
I1451
sV22249
p333
I1675
sV22247
p334
I1674
sV22240
p335
I1673
sV25044
p336
I2093
sV9521
p337
I8560
sV9523
p338
I8561
sV6779
p339
I8057
sV6777
p340
I8055
sV6773
p341
I8053
sV65506
p342
I7746
sV61300
p343
I7145
sV9969
p344
I8631
sV57272
p345
I6577
sV57273
p346
I6578
sV65697
p347
I7777
sV16728
p348
I941
sV55819
p349
I6365
sV65692
p350
I7776
sV55814
p351
I6363
sV16233
p352
I861
sV51825
p353
I5813
sV51824
p354
I5812
sV19917
p355
I1336
sV46798
p356
I5046
sV64612
p357
I7595
sV64616
p358
I7596
sV64619
p359
I7597
sV9502
p360
I8556
sV9503
p361
I8557
sV9500
p362
I8555
sV49098
p363
I5385
sV49548
p364
I5459
sV49543
p365
I5456
sV49090
p366
I5382
sV49541
p367
I5455
sV49092
p368
I5383
sV49545
p369
I5458
sV49096
p370
I5384
sV45464
p371
I4865
sV45466
p372
I4866
sV45460
p373
I4863
sV45461
p374
I4864
sV3682
p375
I3607
sV3686
p376
I3608
sV43144
p377
I4555
sV2518
p378
I2117
sV2514
p379
I2109
sV2516
p380
I2115
sV26042
p381
I2241
sV2511
p382
I2106
sV2512
p383
I2107
sV46515
p384
I5002
sV46517
p385
I5003
sV42814
p386
I4503
sV42815
p387
I4504
sV46513
p388
I5001
sV42818
p389
I4505
sV42819
p390
I4506
sV68111
p391
I8101
sV68112
p392
I8102
sV68114
p393
I8103
sV68116
p394
I8104
sV63359
p395
I7427
sV19096
p396
I1245
sV58466
p397
I6728
sV64452
p398
I7576
sV53974
p399
I6125
sV53752
p400
I6098
sV23838
p401
I1929
sV14866
p402
I693
sV14864
p403
I691
sV14865
p404
I692
sV18548
p405
I1191
sV14644
p406
I665
sV14645
p407
I666
sV18541
p408
I1190
sV18540
p409
I1189
sV38622
p410
I3859
sV38625
p411
I3860
sV38628
p412
I3861
sV62316
p413
I7270
sV62313
p414
I7269
sV41541
p415
I4341
sV41544
p416
I4342
sV20279
p417
I1390
sV10185
p418
I33
sV10186
p419
I34
sV10180
p420
I32
sV67167
p421
I7987
sV67166
p422
I7986
sV67169
p423
I7988
sV40948
p424
I4235
sV40949
p425
I4236
sV29291
p426
I2664
sV29292
p427
I2665
sV58426
p428
I6722
sV47238
p429
I5121
sV47233
p430
I5120
sV23072
p431
I1794
sV23071
p432
I1793
sV47230
p433
I5119
sV30291
p434
I2757
sV45669
p435
I4902
sV29127
p436
I2652
sV29125
p437
I2651
sV29129
p438
I2653
sV31219
p439
I2899
sV8035
p440
I8345
sV8037
p441
I8347
sV8036
p442
I8346
sV8031
p443
I8344
sV8038
p444
I8348
sV12859
p445
I444
sV49301
p446
I5423
sV12581
p447
I413
sV12580
p448
I412
sV12587
p449
I414
sV35914
p450
I3502
sV35911
p451
I3501
sV35910
p452
I3500
sV26609
p453
I2304
sV49304
p454
I5425
sV66561
p455
I7897
sV66567
p456
I7899
sV66564
p457
I7898
sV65316
p458
I7714
sV22652
p459
I1732
sV61032
p460
I7106
sV26544
p461
I2295
sV26545
p462
I2296
sV68178
p463
I8116
sV26541
p464
I2293
sV26542
p465
I2294
sV52835
p466
I5954
sV22386
p467
I1693
sV60929
p468
I7085
sV50699
p469
I5635
sV50690
p470
I5634
sV60926
p471
I7083
sV60927
p472
I7084
sV28656
p473
I2593
sV24769
p474
I2055
sV28652
p475
I2592
sV28650
p476
I2590
sV28651
p477
I2591
sV24766
p478
I2054
sV24765
p479
I2053
sV22031
p480
I1642
sV65208
p481
I7692
sV22035
p482
I1643
sV65200
p483
I7691
sV35665
p484
I3477
sV31969
p485
I3007
sV31961
p486
I3006
sV52925
p487
I5973
sV32247
p488
I3036
sV32245
p489
I3035
sV32248
p490
I3037
sV16009
p491
I839
sV55319
p492
I6300
sV6201
p493
I7238
sV43552
p494
I4597
sV56665
p495
I6497
sV52349
p496
I5891
sV56663
p497
I6496
sV52344
p498
I5889
sV52347
p499
I5890
sV43550
p500
I4595
sV17601
p501
I1066
sV25385
p502
I2155
sV8984
p503
I8490
sV43004
p504
I4535
sV25389
p505
I2157
sV25388
p506
I2156
sV23923
p507
I1938
sV57648
p508
I6631
sV59264
p509
I6851
sV8138
p510
I8364
sV51121
p511
I5695
sV51122
p512
I5696
sV52169
p513
I5864
sV64553
p514
I7584
sV159
p515
I826
sV20864
p516
I1470
sV20715
p517
I1446
sV52690
p518
I5930
sV52167
p519
I5863
sV8134
p520
I8362
sV25569
p521
I2181
sV60075
p522
I6960
sV6185
p523
I7224
sV42318
p524
I4430
sV6182
p525
I7216
sV6181
p526
I7214
sV46670
p527
I5029
sV46671
p528
I5030
sV46672
p529
I5031
sV59268
p530
I6852
sV49154
p531
I5397
sV45323
p532
I4845
sV48201
p533
I5273
sV45632
p534
I4894
sV45326
p535
I4847
sV45325
p536
I4846
sV41696
p537
I4355
sV7237
p538
I8230
sV41167
p539
I4269
sV39807
p540
I4056
sV10375
p541
I66
sV39803
p542
I4055
sV63788
p543
I7478
sV9746
p544
I8595
sV63786
p545
I7477
sV36585
p546
I3577
sV36587
p547
I3579
sV36586
p548
I3578
sV36581
p549
I3576
sV63526
p550
I7451
sV63252
p551
I7410
sV63522
p552
I7450
sV10512
p553
I91
sV10510
p554
I90
sV9771
p555
I8599
sV10515
p556
I92
sV54691
p557
I6221
sV14980
p558
I710
sV37360
p559
I3678
sV18956
p560
I1228
sV37367
p561
I3680
sV37364
p562
I3679
sV54696
p563
I6222
sV54699
p564
I6224
sV14988
p565
I711
sV37368
p566
I3681
sV24167
p567
I1980
sV8869
p568
I8467
sV818
p569
I8368
sV62785
p570
I7356
sV41378
p571
I4305
sV41379
p572
I4306
sV8188
p573
I8369
sV67577
p574
I8035
sV67572
p575
I8034
sV68636
p576
I8179
sV5264
p577
I5925
sV5263
p578
I5921
sV68631
p579
I8178
sV37185
p580
I3655
sV68329
p581
I8139
sV15851
p582
I822
sV68323
p583
I8137
sV68324
p584
I8138
sV67318
p585
I8010
sV50597
p586
I5606
sV67311
p587
I8008
sV67317
p588
I8009
sV14456
p589
I640
sV33957
p590
I3255
sV37983
p591
I3766
sV21089
p592
I1502
sV24571
p593
I2030
sV17983
p594
I1122
sV3029
p595
I2756
sV58552
p596
I6738
sV58553
p597
I6739
sV28406
p598
I2562
sV30600
p599
I2813
sV32563
p600
I3088
sV15587
p601
I790
sV30606
p602
I2814
sV55095
p603
I6268
sV34989
p604
I3392
sV30359
p605
I2765
sV8733
p606
I8455
sV31550
p607
I2946
sV35059
p608
I3408
sV31004
p609
I2865
sV31559
p610
I2947
sV66959
p611
I7959
sV66951
p612
I7958
sV55129
p613
I6274
sV6240
p614
I7280
sV55120
p615
I6272
sV38384
p616
I3830
sV55126
p617
I6273
sV34189
p618
I3289
sV34184
p619
I3288
sV68567
p620
I8171
sV47004
p621
I5091
sV23245
p622
I1826
sV47002
p623
I5090
sV59205
p624
I6842
sV6436
p625
I7560
sV12444
p626
I390
sV12445
p627
I391
sV30972
p628
I2860
sV27008
p629
I2369
sV30971
p630
I2859
sV27007
p631
I2368
sV8199
p632
I8371
sV6439
p633
I7563
sV48851
p634
I5345
sV39386
p635
I4003
sV39383
p636
I4002
sV8357
p637
I8399
sV59922
p638
I6936
sV32581
p639
I3092
sV32583
p640
I3094
sV32582
p641
I3093
sV51425
p642
I5759
sV9940
p643
I8627
sV39039
p644
I3922
sV9945
p645
I8628
sV56473
p646
I6466
sV9948
p647
I8629
sV39037
p648
I3921
sV39030
p649
I3919
sV39031
p650
I3920
sV56475
p651
I6467
sV32056
p652
I3020
sV32727
p653
I3115
sV32054
p654
I3019
sV16212
p655
I857
sV16211
p656
I856
sV32722
p657
I3114
sV57781
p658
I6643
sV32729
p659
I3117
sV32728
p660
I3116
sV16218
p661
I858
sV42788
p662
I4500
sV42789
p663
I4501
sV55872
p664
I6375
sV55873
p665
I6376
sV42782
p666
I4499
sV230
p667
I1777
sV233
p668
I1831
sV56781
p669
I6515
sV20607
p670
I1429
sV27926
p671
I2492
sV25714
p672
I2203
sV43785
p673
I4633
sV25717
p674
I2204
sV43783
p675
I4632
sV62927
p676
I7379
sV64631
p677
I7601
sV64632
p678
I7602
sV62925
p679
I7378
sV62923
p680
I7377
sV45189
p681
I4827
sV62437
p682
I7287
sV45402
p683
I4855
sV45403
p684
I4856
sV45406
p685
I4857
sV64493
p686
I7581
sV57255
p687
I6572
sV49369
p688
I5431
sV57253
p689
I6571
sV43169
p690
I4558
sV2536
p691
I2151
sV2537
p692
I2153
sV58030
p693
I6663
sV58035
p694
I6664
sV46536
p695
I5005
sV58037
p696
I6665
sV46534
p697
I5004
sV17166
p698
I1010
sV17164
p699
I1009
sV17162
p700
I1008
sV55277
p701
I6298
sV38818
p702
I3878
sV68131
p703
I8107
sV60443
p704
I7017
sV60440
p705
I7016
sV60445
p706
I7018
sV9560
p707
I8568
sV57433
p708
I6599
sV9565
p709
I8569
sV36778
p710
I3602
sV36800
p711
I3605
sV36777
p712
I3601
sV931
p713
I8535
sV36775
p714
I3600
sV36772
p715
I3599
sV36805
p716
I3606
sV10740
p717
I144
sV5380
p718
I6105
sV14848
p719
I689
sV33099
p720
I3164
sV58965
p721
I6803
sV33726
p722
I3224
sV33727
p723
I3225
sV58785
p724
I6772
sV14847
p725
I688
sV33090
p726
I3159
sV33091
p727
I3160
sV33092
p728
I3161
sV33093
p729
I3162
sV58546
p730
I6736
sV62335
p731
I7271
sV13098
p732
I477
sV13099
p733
I478
sV13097
p734
I476
sV13095
p735
I475
sV13093
p736
I474
sV44755
p737
I4755
sV44757
p738
I4756
sV44753
p739
I4754
sV12855
p740
I443
sV33254
p741
I3188
sV33543
p742
I3212
sV33544
p743
I3213
sV33545
p744
I3214
sV27824
p745
I2472
sV41520
p746
I4336
sV48076
p747
I5259
sV27827
p748
I2473
sV27822
p749
I2471
sV48073
p750
I5258
sV7566
p751
I8284
sV11181
p752
I222
sV794
p753
I8335
sV29725
p754
I2697
sV57920
p755
I6652
sV29726
p756
I2698
sV22135
p757
I1656
sV6580
p758
I7788
sV47217
p759
I5114
sV40924
p760
I4230
sV43720
p761
I4614
sV66200
p762
I7847
sV15135
p763
I734
sV31760
p764
I2969
sV31761
p765
I2970
sV31762
p766
I2971
sV7140
p767
I8218
sV7141
p768
I8219
sV39555
p769
I4024
sV33894
p770
I3247
sV37647
p771
I3713
sV33892
p772
I3246
sV30015
p773
I2733
sV30017
p774
I2734
sV12874
p775
I451
sV12872
p776
I450
sV12871
p777
I449
sV30012
p778
I2732
sV8509
p779
I8418
sV34519
p780
I3331
sV30018
p781
I2735
sV54589
p782
I6205
sV2882
p783
I2609
sV31493
p784
I2938
sV7498
p785
I8276
sV7499
p786
I8277
sV26661
p787
I2319
sV50324
p788
I5565
sV26662
p789
I2320
sV26665
p790
I2321
sV44977
p791
I4792
sV28090
p792
I2513
sV23013
p793
I1779
sV28095
p794
I2514
sV28098
p795
I2515
sV23018
p796
I1780
sV66542
p797
I7895
sV66546
p798
I7896
sV24295
p799
I1995
sV22632
p800
I1729
sV61013
p801
I7101
sV61014
p802
I7102
sV24748
p803
I2052
sV28671
p804
I2594
sV58529
p805
I6734
sV66183
p806
I7845
sV35642
p807
I3474
sV35641
p808
I3473
sV31944
p809
I3002
sV66186
p810
I7846
sV35644
p811
I3475
sV13659
p812
I549
sV43318
p813
I4572
sV34376
p814
I3313
sV16029
p815
I842
sV5808
p816
I6671
sV51498
p817
I5768
sV32260
p818
I3041
sV51327
p819
I5738
sV5800
p820
I6658
sV19744
p821
I1320
sV32265
p822
I3043
sV19030
p823
I1236
sV19747
p824
I1321
sV17378
p825
I1029
sV56644
p826
I6494
sV17370
p827
I1028
sV52364
p828
I5893
sV25368
p829
I2152
sV23901
p830
I1935
sV61275
p831
I7139
sV65223
p832
I7696
sV65951
p833
I7821
sV65228
p834
I7697
sV51143
p835
I5698
sV27218
p836
I2405
sV51147
p837
I5700
sV51144
p838
I5699
sV20848
p839
I1467
sV64577
p840
I7586
sV60056
p841
I6957
sV64579
p842
I7587
sV20845
p843
I1466
sV25502
p844
I2173
sV36342
p845
I3552
sV36341
p846
I3551
sV36340
p847
I3550
sV16689
p848
I937
sV16684
p849
I934
sV42378
p850
I4440
sV16687
p851
I936
sV2705
p852
I2380
sV2704
p853
I2378
sV2701
p854
I2370
sV4885
p855
I5344
sV2702
p856
I2371
sV10683
p857
I137
sV53091
p858
I6000
sV9172
p859
I8511
sV10684
p860
I138
sV9170
p861
I8509
sV42198
p862
I4412
sV16976
p863
I984
sV16975
p864
I983
sV17081
p865
I1001
sV12268
p866
I362
sV6251
p867
I7300
sV12267
p868
I361
sV12264
p869
I360
sV6254
p870
I7304
sV53540
p871
I6066
sV53541
p872
I6067
sV10532
p873
I100
sV10533
p874
I101
sV10535
p875
I102
sV10537
p876
I103
sV58486
p877
I6730
sV53238
p878
I6008
sV42995
p879
I4531
sV53520
p880
I6064
sV63504
p881
I7445
sV63508
p882
I7446
sV42999
p883
I4532
sV832
p884
I8393
sV22996
p885
I1776
sV3470
p886
I3358
sV22990
p887
I1775
sV37343
p888
I3676
sV3479
p889
I3365
sV8882
p890
I8473
sV18977
p891
I1229
sV48262
p892
I5279
sV48264
p893
I5280
sV20599
p894
I1427
sV56775
p895
I6513
sV64741
p896
I7618
sV44567
p897
I4727
sV26850
p898
I2346
sV40045
p899
I4089
sV40047
p900
I4090
sV40041
p901
I4087
sV7454
p902
I8268
sV40042
p903
I4088
sV7455
p904
I8269
sV68302
p905
I8130
sV68303
p906
I8131
sV68656
p907
I8183
sV68657
p908
I8184
sV1724
p909
I1021
sV59304
p910
I6859
sV13133
p911
I484
sV62742
p912
I7342
sV13138
p913
I485
sV53439
p914
I6040
sV52510
p915
I5912
sV40592
p916
I4182
sV40262
p917
I4118
sV40595
p918
I4184
sV40594
p919
I4183
sV33973
p920
I3257
sV54012
p921
I6131
sV3000
p922
I2731
sV54015
p923
I6132
sV14304
p924
I617
sV33979
p925
I3259
sV33978
p926
I3258
sV18350
p927
I1168
sV18351
p928
I1169
sV18352
p929
I1170
sV38018
p930
I3772
sV45963
p931
I4938
sV17969
p932
I1120
sV58376
p933
I6715
sV38016
p934
I3771
sV38011
p935
I3769
sV17963
p936
I1118
sV17961
p937
I1117
sV9454
p938
I8550
sV59998
p939
I6948
sV59990
p940
I6947
sV30377
p941
I2770
sV31029
p942
I2871
sV31028
p943
I2870
sV66936
p944
I7953
sV31023
p945
I2867
sV39202
p946
I3959
sV31025
p947
I2869
sV31024
p948
I2868
sV57542
p949
I6614
sV5659
p950
I6486
sV5657
p951
I6480
sV37716
p952
I3724
sV59197
p953
I6841
sV59190
p954
I6840
sV7705
p955
I8304
sV68438
p956
I8154
sV13341
p957
I510
sV67887
p958
I8076
sV28284
p959
I2547
sV28286
p960
I2548
sV23733
p961
I1905
sV27024
p962
I2372
sV27027
p963
I2373
sV16982
p964
I985
sV23220
p965
I1823
sV23221
p966
I1824
sV27028
p967
I2374
sV27029
p968
I2375
sV47064
p969
I5098
sV59220
p970
I6844
sV40130
p971
I4104
sV12464
p972
I397
sV30955
p973
I2856
sV30956
p974
I2857
sV12462
p975
I395
sV12463
p976
I396
sV50842
p977
I5657
sV50843
p978
I5658
sV40135
p979
I4105
sV3916
p980
I3942
sV19489
p981
I1293
sV19488
p982
I1292
sV6738
p983
I8015
sV54787
p984
I6235
sV35250
p985
I3444
sV50152
p986
I5541
sV50151
p987
I5540
sV9920
p988
I8619
sV39053
p989
I3926
sV9922
p990
I8620
sV9925
p991
I8621
sV50158
p992
I5542
sV50159
p993
I5543
sV216
p994
I1580
sV215
p995
I1558
sV55502
p996
I6317
sV55501
p997
I6316
sV55858
p998
I6372
sV16765
p999
I949
sV19268
p1000
I1268
sV16761
p1001
I948
sV22176
p1002
I1661
sV6088
p1003
I7078
sV22172
p1004
I1660
sV6087
p1005
I7076
sV6084
p1006
I7071
sV22179
p1007
I1662
sV47486
p1008
I5160
sV25773
p1009
I2213
sV43769
p1010
I4629
sV43768
p1011
I4628
sV43812
p1012
I4641
sV43811
p1013
I4640
sV65562
p1014
I7750
sV49509
p1015
I5451
sV24824
p1016
I2063
sV21858
p1017
I1612
sV65568
p1018
I7751
sV64960
p1019
I7651
sV2555
p1020
I2180
sV2557
p1021
I2182
sV2558
p1022
I2184
sV11471
p1023
I261
sV43100
p1024
I4551
sV43105
p1025
I4552
sV46558
p1026
I5011
sV58019
p1027
I6660
sV46551
p1028
I5009
sV46557
p1029
I5010
sV38832
p1030
I3886
sV38831
p1031
I3885
sV38837
p1032
I3887
sV52556
p1033
I5915
sV52557
p1034
I5916
sV17141
p1035
I1005
sV17142
p1036
I1006
sV25197
p1037
I2119
sV60421
p1038
I7011
sV60425
p1039
I7012
sV60427
p1040
I7013
sV53930
p1041
I6123
sV9544
p1042
I8564
sV62351
p1043
I7274
sV58901
p1044
I6793
sV14823
p1045
I685
sV58902
p1046
I6794
sV62826
p1047
I7360
sV64212
p1048
I7549
sV64213
p1049
I7550
sV64210
p1050
I7548
sV48677
p1051
I5318
sV20104
p1052
I1363
sV22944
p1053
I1771
sV36138
p1054
I3520
sV27849
p1055
I2475
sV14939
p1056
I703
sV40905
p1057
I4225
sV40906
p1058
I4226
sV40907
p1059
I4227
sV39614
p1060
I4038
sV40909
p1061
I4229
sV39616
p1062
I4039
sV29256
p1063
I2662
sV39611
p1064
I4037
sV49726
p1065
I5483
sV37082
p1066
I3645
sV25724
p1067
I2206
sV6672
p1068
I7926
sV34288
p1069
I3308
sV39534
p1070
I4022
sV31702
p1071
I2960
sV31705
p1072
I2961
sV37663
p1073
I3720
sV37662
p1074
I3719
sV37660
p1075
I3718
sV37887
p1076
I3749
sV37884
p1077
I3748
sV37880
p1078
I3747
sV12899
p1079
I453
sV8070
p1080
I8351
sV12890
p1081
I452
sV8077
p1082
I8352
sV26646
p1083
I2313
sV44955
p1084
I4791
sV40675
p1085
I4194
sV26642
p1086
I2311
sV26641
p1087
I2310
sV66217
p1088
I7850
sV50302
p1089
I5562
sV50300
p1090
I5561
sV50306
p1091
I5563
sV1110
p1092
I212
sV1444
p1093
I639
sV68510
p1094
I8166
sV1441
p1095
I634
sV1116
p1096
I219
sV23037
p1097
I1785
sV1118
p1098
I220
sV47907
p1099
I5234
sV47901
p1100
I5233
sV23030
p1101
I1784
sV22613
p1102
I1725
sV22342
p1103
I1690
sV22343
p1104
I1691
sV26509
p1105
I2289
sV26503
p1106
I2288
sV48908
p1107
I5359
sV4726
p1108
I5124
sV48900
p1109
I5355
sV43371
p1110
I4579
sV6528
p1111
I7705
sV4784
p1112
I5222
sV4783
p1113
I5220
sV32935
p1114
I3146
sV5823
p1115
I6695
sV51301
p1116
I5737
sV5829
p1117
I6704
sV5828
p1118
I6701
sV23699
p1119
I1897
sV23698
p1120
I1896
sV11267
p1121
I244
sV32939
p1122
I3147
sV11265
p1123
I242
sV11264
p1124
I241
sV65022
p1125
I7657
sV41011
p1126
I4241
sV61076
p1127
I7108
sV61079
p1128
I7110
sV61078
p1129
I7109
sV56628
p1130
I6491
sV41012
p1131
I4242
sV60216
p1132
I6985
sV56623
p1133
I6490
sV60218
p1134
I6986
sV25343
p1135
I2148
sV25345
p1136
I2149
sV51160
p1137
I5703
sV51161
p1138
I5704
sV51162
p1139
I5705
sV9675
p1140
I8585
sV23961
p1141
I1949
sV23962
p1142
I1950
sV61295
p1143
I7144
sV61294
p1144
I7143
sV65792
p1145
I7786
sV61291
p1146
I7141
sV10108
p1147
I23
sV25525
p1148
I2178
sV25524
p1149
I2177
sV43590
p1150
I4607
sV195
p1151
I1295
sV190
p1152
I1232
sV25528
p1153
I2179
sV57949
p1154
I6655
sV21996
p1155
I1629
sV21997
p1156
I1630
sV42358
p1157
I4438
sV54596
p1158
I6208
sV21998
p1159
I1631
sV21999
p1160
I1632
sV52303
p1161
I5882
sV12799
p1162
I438
sV9154
p1163
I8505
sV9156
p1164
I8506
sV10337
p1165
I62
sV2763
p1166
I2446
sV2762
p1167
I2445
sV2765
p1168
I2447
sV7909
p1169
I8327
sV60806
p1170
I7065
sV16958
p1171
I981
sV7901
p1172
I8325
sV7907
p1173
I8326
sV55803
p1174
I6358
sV12242
p1175
I355
sV12243
p1176
I356
sV12245
p1177
I357
sV12247
p1178
I358
sV21190
p1179
I1522
sV20820
p1180
I1464
sV17894
p1181
I1104
sV51859
p1182
I5823
sV55805
p1183
I6359
sV24120
p1184
I1973
sV24122
p1185
I1974
sV37417
p1186
I3691
sV21447
p1187
I1553
sV21448
p1188
I1554
sV37418
p1189
I3692
sV37419
p1190
I3693
sV21339
p1191
I1541
sV859
p1192
I8429
sV41338
p1193
I4299
sV48248
p1194
I5275
sV44545
p1195
I4721
sV40061
p1196
I4092
sV44547
p1197
I4722
sV44540
p1198
I4718
sV44541
p1199
I4719
sV44543
p1200
I4720
sV11850
p1201
I305
sV54262
p1202
I6168
sV41194
p1203
I4278
sV41196
p1204
I4279
sV41192
p1205
I4276
sV41193
p1206
I4277
sV13113
p1207
I483
sV13111
p1208
I482
sV13110
p1209
I481
sV11180
p1210
I221
sV33919
p1211
I3248
sV14499
p1212
I652
sV14498
p1213
I651
sV17940
p1214
I1112
sV22498
p1215
I1705
sV17942
p1216
I1113
sV58599
p1217
I6743
sV18677
p1218
I1207
sV14490
p1219
I648
sV14497
p1220
I650
sV14495
p1221
I649
sV33253
p1222
I3187
sV45942
p1223
I4935
sV38038
p1224
I3774
sV14356
p1225
I625
sV45945
p1226
I4936
sV8404
p1227
I8407
sV11185
p1228
I223
sV56015
p1229
I6402
sV66664
p1230
I7920
sV66666
p1231
I7921
sV66662
p1232
I7919
sV47598
p1233
I5186
sV31378
p1234
I2918
sV47597
p1235
I5185
sV47594
p1236
I5184
sV7576
p1237
I8287
sV63901
p1238
I7493
sV29061
p1239
I2646
sV29068
p1240
I2647
sV29069
p1241
I2648
sV23752
p1242
I1909
sV1306
p1243
I473
sV23203
p1244
I1820
sV23205
p1245
I1821
sV23755
p1246
I1910
sV23208
p1247
I1822
sV47049
p1248
I5094
sV27046
p1249
I2379
sV499
p1250
I5501
sV495
p1251
I5450
sV62609
p1252
I7314
sV12402
p1253
I382
sV6472
p1254
I7614
sV12400
p1255
I381
sV6476
p1256
I7619
sV12404
p1257
I383
sV12405
p1258
I384
sV31517
p1259
I2943
sV50791
p1260
I5648
sV50792
p1261
I5649
sV31514
p1262
I2942
sV7755
p1263
I8312
sV7754
p1264
I8311
sV19469
p1265
I1290
sV32548
p1266
I3083
sV32545
p1267
I3080
sV3934
p1268
I3990
sV3937
p1269
I3999
sV32546
p1270
I3081
sV3930
p1271
I3980
sV6718
p1272
I7993
sV6719
p1273
I7994
sV6717
p1274
I7989
sV8339
p1275
I8395
sV9904
p1276
I8615
sV39076
p1277
I3929
sV9901
p1278
I8614
sV56437
p1279
I6462
sV56432
p1280
I6461
sV56430
p1281
I6460
sV32761
p1282
I3123
sV32762
p1283
I3124
sV55520
p1284
I6322
sV22152
p1285
I1657
sV22408
p1286
I1694
sV64020
p1287
I7514
sV13750
p1288
I563
sV13753
p1289
I564
sV26311
p1290
I2263
sV40010
p1291
I4082
sV25750
p1292
I2209
sV43290
p1293
I4571
sV43740
p1294
I4621
sV25755
p1295
I2210
sV25756
p1296
I2211
sV43744
p1297
I4622
sV46718
p1298
I5034
sV65586
p1299
I7754
sV49076
p1300
I5380
sV24805
p1301
I2062
sV49074
p1302
I5379
sV56297
p1303
I6445
sV56295
p1304
I6444
sV56299
p1305
I6447
sV56298
p1306
I6446
sV64988
p1307
I7653
sV11458
p1308
I259
sV23824
p1309
I1926
sV11452
p1310
I258
sV17436
p1311
I1039
sV17431
p1312
I1038
sV5033
p1313
I5567
sV64186
p1314
I7542
sV64187
p1315
I7543
sV4436
p1316
I4700
sV60403
p1317
I7007
sV60150
p1318
I6979
sV38851
p1319
I3890
sV38850
p1320
I3889
sV64189
p1321
I7544
sV976
p1322
I8597
sV53915
p1323
I6118
sV57377
p1324
I6595
sV21934
p1325
I1620
sV49177
p1326
I5405
sV20125
p1327
I1366
sV62379
p1328
I7278
sV62378
p1329
I7277
sV62376
p1330
I7276
sV62803
p1331
I7358
sV62370
p1332
I7275
sV48388
p1333
I5287
sV66384
p1334
I7868
sV67702
p1335
I8048
sV48387
p1336
I5286
sV39984
p1337
I4081
sV49382
p1338
I5432
sV42653
p1339
I4488
sV46571
p1340
I5013
sV4158
p1341
I4344
sV48031
p1342
I5256
sV48032
p1343
I5257
sV64813
p1344
I7622
sV27864
p1345
I2477
sV27865
p1346
I2478
sV41075
p1347
I4250
sV41074
p1348
I4249
sV45008
p1349
I4798
sV10474
p1350
I81
sV19926
p1351
I1338
sV45656
p1352
I4899
sV40631
p1353
I4186
sV63173
p1354
I7396
sV63171
p1355
I7395
sV8927
p1356
I8478
sV58926
p1357
I6798
sV54241
p1358
I6162
sV8923
p1359
I8477
sV37066
p1360
I3641
sV37063
p1361
I3640
sV58928
p1362
I6799
sV59521
p1363
I6880
sV34268
p1364
I3306
sV30584
p1365
I2809
sV34267
p1366
I3305
sV15175
p1367
I738
sV29181
p1368
I2655
sV58410
p1369
I6718
sV29184
p1370
I2656
sV7108
p1371
I8208
sV7109
p1372
I8209
sV65805
p1373
I7789
sV31729
p1374
I2962
sV28119
p1375
I2519
sV58414
p1376
I6719
sV49929
p1377
I5504
sV66251
p1378
I7854
sV18780
p1379
I1216
sV18786
p1380
I1217
sV66253
p1381
I7855
sV68162
p1382
I8112
sV67273
p1383
I8004
sV34002
p1384
I3264
sV34001
p1385
I3263
sV34006
p1386
I3266
sV34005
p1387
I3265
sV46872
p1388
I5064
sV50363
p1389
I5572
sV653
p1390
I7708
sV50367
p1391
I5573
sV46873
p1392
I5065
sV40655
p1393
I4189
sV40656
p1394
I4190
sV58064
p1395
I6668
sV14776
p1396
I681
sV14774
p1397
I679
sV14775
p1398
I680
sV28050
p1399
I2509
sV24259
p1400
I1992
sV68537
p1401
I8167
sV47927
p1402
I5237
sV47924
p1403
I5236
sV24786
p1404
I2060
sV24780
p1405
I2057
sV24781
p1406
I2058
sV24783
p1407
I2059
sV5591
p1408
I6378
sV28633
p1409
I2585
sV5597
p1410
I6393
sV28638
p1411
I2586
sV38204
p1412
I3804
sV38205
p1413
I3805
sV38203
p1414
I3803
sV31984
p1415
I3008
sV31985
p1416
I3009
sV31986
p1417
I3010
sV50586
p1418
I5605
sV50581
p1419
I5602
sV50583
p1420
I5603
sV5806
p1421
I6667
sV11203
p1422
I228
sV66495
p1423
I7884
sV11204
p1424
I229
sV43356
p1425
I4576
sV66499
p1426
I7885
sV51362
p1427
I5745
sV19073
p1428
I1242
sV25325
p1429
I2142
sV25326
p1430
I2143
sV25329
p1431
I2145
sV25328
p1432
I2144
sV23946
p1433
I1946
sV23943
p1434
I1945
sV23942
p1435
I1944
sV51189
p1436
I5711
sV51186
p1437
I5710
sV51184
p1438
I5708
sV51185
p1439
I5709
sV51183
p1440
I5707
sV6219
p1441
I7255
sV43566
p1442
I4602
sV8698
p1443
I8448
sV8558
p1444
I8422
sV54987
p1445
I6263
sV8127
p1446
I8361
sV51984
p1447
I5836
sV51985
p1448
I5837
sV55951
p1449
I6386
sV32371
p1450
I3058
sV19699
p1451
I1308
sV42400
p1452
I4447
sV56602
p1453
I6488
sV52986
p1454
I5983
sV56608
p1455
I6489
sV52322
p1456
I5887
sV52320
p1457
I5886
sV7926
p1458
I8331
sV7924
p1459
I8330
sV57550
p1460
I6617
sV46616
p1461
I5020
sV7295
p1462
I8243
sV53058
p1463
I5993
sV10310
p1464
I61
sV57004
p1465
I6539
sV53054
p1466
I5992
sV57558
p1467
I6618
sV57001
p1468
I6538
sV26757
p1469
I2333
sV39861
p1470
I4064
sV10641
p1471
I126
sV26756
p1472
I2332
sV16428
p1473
I890
sV16424
p1474
I888
sV16427
p1475
I889
sV56867
p1476
I6524
sV61942
p1477
I7231
sV60094
p1478
I6964
sV26127
p1479
I2244
sV26122
p1480
I2243
sV32638
p1481
I3103
sV20800
p1482
I1460
sV63815
p1483
I7484
sV63817
p1484
I7485
sV63543
p1485
I7453
sV53270
p1486
I6012
sV63549
p1487
I7454
sV57885
p1488
I6651
sV7408
p1489
I8259
sV53506
p1490
I6057
sV21312
p1491
I1537
sV46963
p1492
I5081
sV38445
p1493
I3839
sV17596
p1494
I1064
sV56970
p1495
I6532
sV56971
p1496
I6533
sV3430
p1497
I3310
sV7806
p1498
I8317
sV4842
p1499
I5295
sV2038
p1500
I1396
sV49794
p1501
I5489
sV5201
p1502
I5841
sV58600
p1503
I6744
sV11996
p1504
I324
sV50747
p1505
I5642
sV62494
p1506
I7297
sV13179
p1507
I491
sV36077
p1508
I3512
sV36071
p1509
I3511
sV68417
p1510
I8151
sV14347
p1511
I622
sV11192
p1512
I225
sV37292
p1513
I3668
sV37293
p1514
I3669
sV54051
p1515
I6139
sV11196
p1516
I226
sV11199
p1517
I227
sV33939
p1518
I3252
sV33938
p1519
I3251
sV62636
p1520
I7315
sV62637
p1521
I7316
sV38052
p1522
I3775
sV38055
p1523
I3776
sV21428
p1524
I1551
sV38057
p1525
I3777
sV38059
p1526
I3778
sV3046
p1527
I2783
sV45920
p1528
I4932
sV34926
p1529
I3385
sV45924
p1530
I4933
sV45926
p1531
I4934
sV67045
p1532
I7972
sV66399
p1533
I7870
sV66642
p1534
I7916
sV66641
p1535
I7915
sV1099
p1536
I182
sV66644
p1537
I7917
sV15696
p1538
I806
sV29519
p1539
I2686
sV29044
p1540
I2644
sV29045
p1541
I2645
sV29515
p1542
I2685
sV23778
p1543
I1915
sV47714
p1544
I5206
sV47712
p1545
I5204
sV47713
p1546
I5205
sV30911
p1547
I2852
sV15343
p1548
I758
sV59263
p1549
I6850
sV6902
p1550
I8196
sV15347
p1551
I759
sV48830
p1552
I5343
sV8136
p1553
I8363
sV27064
p1554
I2381
sV27066
p1555
I2382
sV15439
p1556
I772
sV64142
p1557
I7530
sV50800
p1558
I5650
sV31065
p1559
I2878
sV55740
p1560
I6351
sV7737
p1561
I8308
sV7736
p1562
I8307
sV35037
p1563
I3401
sV19191
p1564
I1264
sV32562
p1565
I3087
sV19447
p1566
I1289
sV8359
p1567
I8400
sV8350
p1568
I8396
sV34740
p1569
I3360
sV8352
p1570
I8397
sV34742
p1571
I3361
sV34744
p1572
I3362
sV8356
p1573
I8398
sV34746
p1574
I3363
sV39095
p1575
I3933
sV24443
p1576
I2019
sV50118
p1577
I5537
sV66024
p1578
I7826
sV50112
p1579
I5536
sV50110
p1580
I5535
sV61556
p1581
I7183
sV45190
p1582
I4828
sV55548
p1583
I6325
sV65619
p1584
I7759
sV65618
p1585
I7758
sV68651
p1586
I8182
sV65615
p1587
I7756
sV65617
p1588
I7757
sV27930
p1589
I2493
sV61558
p1590
I7184
sV55545
p1591
I6324
sV45193
p1592
I4830
sV7660
p1593
I8297
sV20616
p1594
I1433
sV22133
p1595
I1655
sV22427
p1596
I1695
sV13772
p1597
I568
sV43723
p1598
I4615
sV43724
p1599
I4616
sV13774
p1600
I569
sV55744
p1601
I6352
sV63429
p1602
I7440
sV27938
p1603
I2498
sV58685
p1604
I6753
sV19224
p1605
I1266
sV19997
p1606
I1345
sV32749
p1607
I3120
sV17100
p1608
I1002
sV56014
p1609
I6401
sV52044
p1610
I5853
sV56016
p1611
I6403
sV52042
p1612
I5852
sV56010
p1613
I6400
sV52516
p1614
I5913
sV38870
p1615
I3893
sV17108
p1616
I1003
sV17109
p1617
I1004
sV60171
p1618
I6980
sV4450
p1619
I4713
sV60177
p1620
I6981
sV13347
p1621
I511
sV4459
p1622
I4732
sV36718
p1623
I3594
sV44430
p1624
I4705
sV57496
p1625
I6609
sV57499
p1626
I6610
sV955
p1627
I8565
sV25307
p1628
I2139
sV24863
p1629
I2068
sV21813
p1630
I1610
sV24867
p1631
I2070
sV49016
p1632
I5370
sV49018
p1633
I5371
sV25656
p1634
I2195
sV48637
p1635
I5313
sV48634
p1636
I5312
sV62827
p1637
I7361
sV41270
p1638
I4289
sV62824
p1639
I7359
sV16854
p1640
I965
sV16857
p1641
I966
sV16853
p1642
I964
sV44736
p1643
I4753
sV16858
p1644
I967
sV12167
p1645
I340
sV55667
p1646
I6341
sV46598
p1647
I5017
sV7187
p1648
I8225
sV42890
p1649
I4515
sV42892
p1650
I4516
sV42894
p1651
I4517
sV12168
p1652
I341
sV42897
p1653
I4518
sV59722
p1654
I6902
sV27888
p1655
I2480
sV45024
p1656
I4802
sV45025
p1657
I4803
sV45026
p1658
I4804
sV45027
p1659
I4805
sV53643
p1660
I6077
sV53642
p1661
I6076
sV57942
p1662
I6653
sV29214
p1663
I2659
sV57947
p1664
I6654
sV39659
p1665
I4043
sV53649
p1666
I6078
sV21764
p1667
I1602
sV21762
p1668
I1601
sV22126
p1669
I1654
sV63156
p1670
I7394
sV54268
p1671
I6170
sV37049
p1672
I3636
sV54919
p1673
I6257
sV33036
p1674
I3151
sV11851
p1675
I306
sV11852
p1676
I307
sV54915
p1677
I6256
sV54265
p1678
I6169
sV33030
p1679
I3150
sV59090
p1680
I6818
sV30217
p1681
I2754
sV59095
p1682
I6819
sV59096
p1683
I6820
sV47200
p1684
I5112
sV7129
p1685
I8213
sV7127
p1686
I8212
sV26930
p1687
I2355
sV7120
p1688
I8211
sV37626
p1689
I3712
sV49908
p1690
I5502
sV68735
p1691
I8189
sV68734
p1692
I8188
sV68737
p1693
I8191
sV68736
p1694
I8190
sV1660
p1695
I919
sV67253
p1696
I7999
sV67706
p1697
I8049
sV67701
p1698
I8047
sV13761
p1699
I565
sV44998
p1700
I4797
sV2829
p1701
I2549
sV50081
p1702
I5530
sV44992
p1703
I4795
sV44990
p1704
I4794
sV44997
p1705
I4796
sV40634
p1706
I4187
sV40635
p1707
I4188
sV66259
p1708
I7858
sV47943
p1709
I5243
sV47942
p1710
I5242
sV47946
p1711
I5244
sV66250
p1712
I7853
sV47948
p1713
I5245
sV14757
p1714
I673
sV66254
p1715
I7856
sV66256
p1716
I7857
sV34241
p1717
I3302
sV34242
p1718
I3303
sV20925
p1719
I1482
sV68556
p1720
I8169
sV7743
p1721
I8310
sV45771
p1722
I4917
sV18109
p1723
I1131
sV30077
p1724
I2742
sV34021
p1725
I3267
sV30073
p1726
I2741
sV38266
p1727
I3811
sV38264
p1728
I3810
sV35372
p1729
I3452
sV35376
p1730
I3453
sV31301
p1731
I2910
sV334
p1732
I3202
sV47364
p1733
I5136
sV58162
p1734
I6683
sV11227
p1735
I235
sV11224
p1736
I234
sV51348
p1737
I5742
sV48993
p1738
I5368
sV51438
p1739
I5762
sV51439
p1740
I5763
sV5866
p1741
I6752
sV19054
p1742
I1241
sV22306
p1743
I1687
sV25902
p1744
I2226
sV25655
p1745
I2194
sV25304
p1746
I2138
sV65930
p1747
I7817
sV65284
p1748
I7706
sV31202
p1749
I2896
sV55973
p1750
I6396
sV42460
p1751
I4454
sV55971
p1752
I6395
sV55970
p1753
I6394
sV55976
p1754
I6397
sV42466
p1755
I4455
sV16620
p1756
I924
sV53844
p1757
I6110
sV36911
p1758
I3618
sV63700
p1759
I7466
sV63703
p1760
I7467
sV63707
p1761
I7469
sV63706
p1762
I7468
sV57022
p1763
I6541
sV9443
p1764
I8548
sV9117
p1765
I8504
sV12284
p1766
I368
sV16448
p1767
I892
sV65422
p1768
I7738
sV65423
p1769
I7739
sV12283
p1770
I367
sV21157
p1771
I1513
sV21154
p1772
I1512
sV21153
p1773
I1511
sV64081
p1774
I7526
sV64080
p1775
I7525
sV54310
p1776
I6175
sV42287
p1777
I4425
sV42281
p1778
I4423
sV42283
p1779
I4424
sV59169
p1780
I6837
sV42288
p1781
I4426
sV22933
p1782
I1768
sV46909
p1783
I5073
sV22935
p1784
I1769
sV49223
p1785
I5417
sV49220
p1786
I5416
sV49225
p1787
I5418
sV38465
p1788
I3840
sV38466
p1789
I3841
sV38467
p1790
I3842
sV10665
p1791
I133
sV4869
p1792
I5319
sV53070
p1793
I5996
sV10661
p1794
I132
sV2016
p1795
I1374
sV4866
p1796
I5314
sV2010
p1797
I1362
sV2013
p1798
I1367
sV14103
p1799
I601
sV32756
p1800
I3121
sV14107
p1801
I602
sV51902
p1802
I5831
sV55570
p1803
I6329
sV52701
p1804
I5933
sV52700
p1805
I5932
sV52702
p1806
I5934
sV50400
p1807
I5577
sV52708
p1808
I5935
sV60614
p1809
I7033
sV60615
p1810
I7034
sV13153
p1811
I489
sV13150
p1812
I488
sV60618
p1813
I7035
sV13158
p1814
I490
sV10597
p1815
I117
sV36505
p1816
I3570
sV10598
p1817
I118
sV51659
p1818
I5792
sV36500
p1819
I3569
sV33263
p1820
I3190
sV33262
p1821
I3189
sV18668
p1822
I1203
sV33265
p1823
I3191
sV18665
p1824
I1202
sV20425
p1825
I1403
sV27436
p1826
I2432
sV41484
p1827
I4330
sV41485
p1828
I4331
sV20420
p1829
I1402
sV41480
p1830
I4329
sV38076
p1831
I3780
sV38074
p1832
I3779
sV20429
p1833
I1405
sV53444
p1834
I6043
sV9110
p1835
I8503
sV24002
p1836
I1959
sV47884
p1837
I5229
sV47880
p1838
I5228
sV47551
p1839
I5176
sV12993
p1840
I467
sV37244
p1841
I3664
sV65426
p1842
I7741
sV49875
p1843
I5498
sV30548
p1844
I2803
sV65424
p1845
I7740
sV61173
p1846
I7119
sV40289
p1847
I4123
sV40280
p1848
I4122
sV30545
p1849
I2802
sV458
p1850
I4919
sV47773
p1851
I5212
sV47770
p1852
I5211
sV47776
p1853
I5214
sV47775
p1854
I5213
sV8116
p1855
I8357
sV59283
p1856
I6856
sV8115
p1857
I8356
sV55845
p1858
I6369
sV7714
p1859
I8305
sV39301
p1860
I3981
sV66621
p1861
I7909
sV50288
p1862
I5557
sV66625
p1863
I7912
sV66624
p1864
I7911
sV61391
p1865
I7162
sV61392
p1866
I7163
sV61394
p1867
I7164
sV67935
p1868
I8081
sV67933
p1869
I8080
sV50130
p1870
I5538
sV47085
p1871
I5102
sV47086
p1872
I5103
sV28779
p1873
I2608
sV22441
p1874
I1697
sV22115
p1875
I1651
sV22110
p1876
I1650
sV65631
p1877
I7766
sV65634
p1878
I7767
sV24872
p1879
I2072
sV13717
p1880
I555
sV43700
p1881
I4611
sV19420
p1882
I1286
sV55707
p1883
I6346
sV3975
p1884
I4051
sV32506
p1885
I3078
sV55709
p1886
I6347
sV52282
p1887
I5881
sV24875
p1888
I2073
sV3625
p1889
I3539
sV3624
p1890
I3538
sV60375
p1891
I7006
sV60374
p1892
I7005
sV11410
p1893
I253
sV45234
p1894
I4840
sV51661
p1895
I5793
sV16292
p1896
I870
sV16291
p1897
I869
sV56035
p1898
I6405
sV38895
p1899
I3896
sV56039
p1900
I6407
sV56038
p1901
I6406
sV38891
p1902
I3894
sV38892
p1903
I3895
sV4478
p1904
I4761
sV36267
p1905
I3541
sV60110
p1906
I6971
sV4477
p1907
I4760
sV4476
p1908
I4757
sV21482
p1909
I1556
sV46759
p1910
I5040
sV42487
p1911
I4463
sV42077
p1912
I4408
sV42074
p1913
I4407
sV49033
p1914
I5375
sV45237
p1915
I4841
sV49031
p1916
I5374
sV47871
p1917
I5225
sV2461
p1918
I2035
sV45226
p1919
I4837
sV48611
p1920
I5310
sV20163
p1921
I1377
sV48343
p1922
I5285
sV20166
p1923
I1378
sV21489
p1924
I1557
sV36192
p1925
I3528
sV36193
p1926
I3529
sV777
p1927
I8313
sV5342
p1928
I6036
sV12143
p1929
I338
sV42618
p1930
I4485
sV42619
p1931
I4486
sV42610
p1932
I4484
sV59702
p1933
I6896
sV59703
p1934
I6897
sV59705
p1935
I6898
sV59870
p1936
I6926
sV59871
p1937
I6927
sV36998
p1938
I3627
sV36999
p1939
I3628
sV9656
p1940
I8584
sV22938
p1941
I1770
sV29237
p1942
I2661
sV10430
p1943
I75
sV53625
p1944
I6072
sV10126
p1945
I27
sV10437
p1946
I77
sV9303
p1947
I8533
sV49691
p1948
I5482
sV49690
p1949
I5481
sV37025
p1950
I3634
sV63134
p1951
I7392
sV55631
p1952
I6335
sV25732
p1953
I2208
sV26919
p1954
I2351
sV65217
p1955
I7695
sV44394
p1956
I4703
sV26913
p1957
I2350
sV49962
p1958
I5510
sV49964
p1959
I5511
sV41035
p1960
I4244
sV6864
p1961
I8180
sV68207
p1962
I8119
sV68711
p1963
I8185
sV40346
p1964
I4139
sV44316
p1965
I4691
sV67231
p1966
I7996
sV67230
p1967
I7995
sV29941
p1968
I2718
sV40348
p1969
I4140
sV14344
p1970
I621
sV18297
p1971
I1163
sV28019
p1972
I2506
sV5436
p1973
I6183
sV47969
p1974
I5248
sV28549
p1975
I2580
sV47967
p1976
I5247
sV5439
p1977
I6186
sV3360
p1978
I3217
sV58474
p1979
I6729
sV3363
p1980
I3219
sV34222
p1981
I3297
sV10667
p1982
I134
sV34224
p1983
I3298
sV13962
p1984
I588
sV13960
p1985
I587
sV39264
p1986
I3974
sV23106
p1987
I1795
sV5554
p1988
I6323
sV18120
p1989
I1134
sV18127
p1990
I1136
sV18125
p1991
I1135
sV5559
p1992
I6332
sV4867
p1993
I5316
sV34598
p1994
I3337
sV34596
p1995
I3336
sV8586
p1996
I8427
sV31328
p1997
I2916
sV23182
p1998
I1819
sV47341
p1999
I5132
sV51411
p2000
I5756
sV47344
p2001
I5133
sV5888
p2002
I6789
sV23633
p2003
I1886
sV30896
p2004
I2845
sV58622
p2005
I6747
sV27744
p2006
I2462
sV48976
p2007
I5366
sV27741
p2008
I2459
sV5870
p2009
I6756
sV48973
p2010
I5365
sV27742
p2011
I2460
sV25929
p2012
I2228
sV22327
p2013
I1688
sV28279
p2014
I2545
sV6449
p2015
I7580
sV25676
p2016
I2198
sV25675
p2017
I2197
sV23458
p2018
I1851
sV23451
p2019
I1847
sV23982
p2020
I1955
sV23453
p2021
I1848
sV23980
p2022
I1954
sV23455
p2023
I1849
sV23457
p2024
I1850
sV9887
p2025
I8611
sV356
p2026
I3467
sV354
p2027
I3454
sV352
p2028
I3432
sV39115
p2029
I3934
sV39119
p2030
I3935
sV9888
p2031
I8612
sV61184
p2032
I7126
sV61186
p2033
I7127
sV61181
p2034
I7124
sV3102
p2035
I2866
sV61182
p2036
I7125
sV42446
p2037
I4453
sV42445
p2038
I4452
sV42444
p2039
I4451
sV10115
p2040
I26
sV22589
p2041
I1720
sV8672
p2042
I8447
sV64865
p2043
I7635
sV10953
p2044
I175
sV64866
p2045
I7636
sV64861
p2046
I7633
sV10957
p2047
I176
sV64710
p2048
I7613
sV21170
p2049
I1517
sV21171
p2050
I1518
sV16467
p2051
I895
sV16468
p2052
I896
sV63726
p2053
I7472
sV21178
p2054
I1519
sV63721
p2055
I7471
sV61988
p2056
I7236
sV61985
p2057
I7234
sV61987
p2058
I7235
sV24986
p2059
I2086
sV31633
p2060
I2955
sV2254
p2061
I1708
sV46920
p2062
I5075
sV46921
p2063
I5076
sV24181
p2064
I1982
sV46924
p2065
I5077
sV42918
p2066
I4523
sV46250
p2067
I4953
sV46251
p2068
I4954
sV42915
p2069
I4521
sV42914
p2070
I4520
sV42917
p2071
I4522
sV63586
p2072
I7458
sV42913
p2073
I4519
sV63584
p2074
I7456
sV52491
p2075
I5906
sV52492
p2076
I5907
sV22916
p2077
I1763
sV52498
p2078
I5908
sV2784
p2079
I2474
sV45699
p2080
I4905
sV8979
p2081
I8487
sV4808
p2082
I5260
sV41935
p2083
I4387
sV41932
p2084
I4386
sV45692
p2085
I4903
sV55811
p2086
I6362
sV10602
p2087
I119
sV9464
p2088
I8551
sV2079
p2089
I1456
sV10606
p2090
I120
sV51827
p2091
I5814
sV2070
p2092
I1445
sV2075
p2093
I1454
sV2074
p2094
I1448
sV11958
p2095
I317
sV11954
p2096
I315
sV11957
p2097
I316
sV18462
p2098
I1182
sV54540
p2099
I6195
sV11953
p2100
I314
sV68388
p2101
I8148
sV52725
p2102
I5939
sV62457
p2103
I7293
sV62454
p2104
I7291
sV52728
p2105
I5940
sV62453
p2106
I7290
sV68386
p2107
I8147
sV60634
p2108
I7038
sV60636
p2109
I7039
sV60632
p2110
I7036
sV60633
p2111
I7037
sV36039
p2112
I3510
sV9791
p2113
I8602
sV9790
p2114
I8601
sV36523
p2115
I3572
sV36522
p2116
I3571
sV36033
p2117
I3509
sV36525
p2118
I3573
sV33209
p2119
I3179
sV54099
p2120
I6147
sV47293
p2121
I5128
sV33200
p2122
I3177
sV14381
p2123
I627
sV23580
p2124
I1875
sV54097
p2125
I6146
sV33207
p2126
I3178
sV54094
p2127
I6145
sV34961
p2128
I3391
sV48409
p2129
I5291
sV48405
p2130
I5289
sV48407
p2131
I5290
sV62676
p2132
I7332
sV67001
p2133
I7964
sV8416
p2134
I8410
sV8414
p2135
I8409
sV53874
p2136
I6113
sV41759
p2137
I4356
sV59119
p2138
I6822
sV59111
p2139
I6821
sV29000
p2140
I2640
sV41486
p2141
I4332
sV29005
p2142
I2641
sV20427
p2143
I1404
sV45904
p2144
I4931
sV6495
p2145
I7646
sV9804
p2146
I8604
sV15388
p2147
I763
sV15389
p2148
I764
sV39325
p2149
I3986
sV6949
p2150
I8198
sV6948
p2151
I8197
sV39320
p2152
I3982
sV39321
p2153
I3983
sV39322
p2154
I3984
sV39323
p2155
I3985
sV15473
p2156
I778
sV50736
p2157
I5639
sV50737
p2158
I5640
sV7135
p2159
I8215
sV26766
p2160
I2334
sV26767
p2161
I2335
sV47574
p2162
I5180
sV66359
p2163
I7865
sV66603
p2164
I7906
sV8398
p2165
I8406
sV34787
p2166
I3364
sV8397
p2167
I8405
sV8391
p2168
I8404
sV40405
p2169
I4154
sV40407
p2170
I4155
sV40400
p2171
I4153
sV40409
p2172
I4156
sV24401
p2173
I2013
sV4394
p2174
I4656
sV24409
p2175
I2015
sV24408
p2176
I2014
sV28753
p2177
I2606
sV3196
p2178
I3005
sV47752
p2179
I5209
sV3193
p2180
I3001
sV477
p2181
I5200
sV3191
p2182
I2995
sV3190
p2183
I2991
sV478
p2184
I5215
sV28974
p2185
I2631
sV28201
p2186
I2533
sV28971
p2187
I2630
sV28970
p2188
I2629
sV61453
p2189
I7175
sV22462
p2190
I1698
sV13735
p2191
I558
sV13732
p2192
I557
sV64033
p2193
I7516
sV13738
p2194
I559
sV43273
p2195
I4570
sV43272
p2196
I4569
sV43270
p2197
I4568
sV19159
p2198
I1256
sV32838
p2199
I3135
sV32834
p2200
I3134
sV49544
p2201
I5457
sV32833
p2202
I3133
sV32832
p2203
I3132
sV56583
p2204
I6483
sV56581
p2205
I6482
sV56586
p2206
I6485
sV56585
p2207
I6484
sV56237
p2208
I6433
sV52260
p2209
I5877
sV43182
p2210
I4561
sV35439
p2211
I3459
sV68727
p2212
I8186
sV23846
p2213
I1932
sV23844
p2214
I1931
sV23841
p2215
I1930
sV1657
p2216
I911
sV51609
p2217
I5789
sV65650
p2218
I7769
sV27174
p2219
I2403
sV296
p2220
I2691
sV32780
p2221
I3126
sV51605
p2222
I5787
sV51604
p2223
I5786
sV290
p2224
I2639
sV51606
p2225
I5788
sV56059
p2226
I6408
sV60136
p2227
I6974
sV52009
p2228
I5840
sV52007
p2229
I5839
sV60138
p2230
I6975
sV25448
p2231
I2165
sV25449
p2232
I2166
sV36209
p2233
I3531
sV25442
p2234
I2164
sV42582
p2235
I4480
sV64928
p2236
I7644
sV46001
p2237
I4940
sV42581
p2238
I4479
sV42584
p2239
I4481
sV2442
p2240
I2018
sV64298
p2241
I7555
sV47552
p2242
I5177
sV7865
p2243
I8322
sV39929
p2244
I4072
sV39924
p2245
I4070
sV39925
p2246
I4071
sV39920
p2247
I4069
sV57183
p2248
I6565
sV16819
p2249
I957
sV42632
p2250
I4487
sV42325
p2251
I4432
sV16810
p2252
I955
sV16816
p2253
I956
sV6379
p2254
I7479
sV12121
p2255
I337
sV46660
p2256
I5025
sV53355
p2257
I6028
sV39696
p2258
I4047
sV53351
p2259
I6027
sV53350
p2260
I6026
sV53601
p2261
I6069
sV2735
p2262
I2425
sV9638
p2263
I8581
sV40989
p2264
I4238
sV63113
p2265
I7390
sV46511
p2266
I5000
sV9321
p2267
I8538
sV40987
p2268
I4237
sV21729
p2269
I1595
sV58987
p2270
I6806
sV37008
p2271
I3632
sV58989
p2272
I6808
sV58988
p2273
I6807
sV21723
p2274
I1593
sV37003
p2275
I3631
sV21727
p2276
I1594
sV37000
p2277
I3630
sV45205
p2278
I4834
sV45200
p2279
I4833
sV41238
p2280
I4284
sV26970
p2281
I2362
sV40183
p2282
I4112
sV26977
p2283
I2363
sV40187
p2284
I4113
sV26979
p2285
I2364
sV49941
p2286
I5506
sV49418
p2287
I5433
sV49948
p2288
I5507
sV58189
p2289
I6686
sV1622
p2290
I859
sV1620
p2291
I854
sV1627
p2292
I864
sV3202
p2293
I3017
sV3200
p2294
I3015
sV1629
p2295
I868
sV1628
p2296
I867
sV48090
p2297
I5262
sV41588
p2298
I4345
sV48098
p2299
I5264
sV59858
p2300
I6924
sV44332
p2301
I4697
sV40369
p2302
I4144
sV555
p2303
I6315
sV2869
p2304
I2595
sV40366
p2305
I4143
sV29960
p2306
I2723
sV40360
p2307
I4142
sV29965
p2308
I2724
sV24238
p2309
I1990
sV58455
p2310
I6725
sV14245
p2311
I613
sV58453
p2312
I6724
sV28001
p2313
I2505
sV58323
p2314
I6711
sV24231
p2315
I1989
sV58458
p2316
I6726
sV1198
p2317
I322
sV3348
p2318
I3209
sV62245
p2319
I7261
sV30205
p2320
I2752
sV1191
p2321
I309
sV5451
p2322
I6191
sV5452
p2323
I6193
sV1195
p2324
I313
sV1197
p2325
I320
sV1196
p2326
I318
sV30254
p2327
I2755
sV34204
p2328
I3294
sV34205
p2329
I3295
sV34206
p2330
I3296
sV13941
p2331
I586
sV4255
p2332
I4478
sV35154
p2333
I3430
sV28697
p2334
I2596
sV18147
p2335
I1139
sV66167
p2336
I7838
sV66165
p2337
I7837
sV49817
p2338
I5492
sV66168
p2339
I7839
sV23618
p2340
I1885
sV27434
p2341
I2431
sV51477
p2342
I5766
sV23610
p2343
I1883
sV23617
p2344
I1884
sV16575
p2345
I914
sV61745
p2346
I7208
sV27767
p2347
I2464
sV61742
p2348
I7207
sV27764
p2349
I2463
sV25949
p2350
I2231
sV25948
p2351
I2230
sV6448
p2352
I7578
sV53976
p2353
I6126
sV16570
p2354
I912
sV23477
p2355
I1854
sV6224
p2356
I7260
sV3832
p2357
I3817
sV3833
p2358
I3819
sV1344
p2359
I526
sV6225
p2360
I7262
sV23479
p2361
I1856
sV23478
p2362
I1855
sV457
p2363
I4906
sV7522
p2364
I8280
sV35336
p2365
I3448
sV50073
p2366
I5528
sV370
p2367
I3629
sV39173
p2368
I3945
sV50079
p2369
I5529
sV374
p2370
I3690
sV377
p2371
I3723
sV35338
p2372
I3449
sV55937
p2373
I6384
sV16663
p2374
I929
sV51294
p2375
I5735
sV19365
p2376
I1281
sV51293
p2377
I5734
sV55931
p2378
I6381
sV55930
p2379
I6380
sV19368
p2380
I1282
sV51299
p2381
I5736
sV6142
p2382
I7169
sV12715
p2383
I434
sV12718
p2384
I435
sV52928
p2385
I5974
sV10976
p2386
I179
sV10978
p2387
I180
sV52924
p2388
I5972
sV52920
p2389
I5969
sV52923
p2390
I5971
sV52922
p2391
I5970
sV25614
p2392
I2189
sV60839
p2393
I7070
sV60830
p2394
I7069
sV46497
p2395
I4994
sV46499
p2396
I4995
sV64592
p2397
I7589
sV2270
p2398
I1736
sV26146
p2399
I2246
sV2272
p2400
I1738
sV26148
p2401
I2247
sV43049
p2402
I4542
sV43517
p2403
I4590
sV56247
p2404
I6435
sV11599
p2405
I276
sV46279
p2406
I4963
sV46274
p2407
I4962
sV46270
p2408
I4959
sV46271
p2409
I4960
sV42935
p2410
I4526
sV56910
p2411
I6528
sV38422
p2412
I3833
sV38425
p2413
I3834
sV41912
p2414
I4383
sV17289
p2415
I1022
sV41919
p2416
I4384
sV4535
p2417
I4850
sV13447
p2418
I529
sV13446
p2419
I528
sV66623
p2420
I7910
sV13443
p2421
I527
sV4533
p2422
I4848
sV7988
p2423
I8337
sV10621
p2424
I121
sV10622
p2425
I122
sV57062
p2426
I6548
sV57061
p2427
I6547
sV53037
p2428
I5989
sV54561
p2429
I6200
sV11977
p2430
I321
sV58842
p2431
I6785
sV52749
p2432
I5942
sV17758
p2433
I1082
sV64332
p2434
I7557
sV27967
p2435
I2502
sV56759
p2436
I6509
sV17755
p2437
I1080
sV52747
p2438
I5941
sV17756
p2439
I1081
sV36540
p2440
I3574
sV13198
p2441
I492
sV36011
p2442
I3507
sV36010
p2443
I3506
sV36019
p2444
I3508
sV63875
p2445
I7490
sV62650
p2446
I7320
sV21418
p2447
I1548
sV62659
p2448
I7321
sV48138
p2449
I5270
sV34948
p2450
I3388
sV48427
p2451
I5296
sV13425
p2452
I522
sV20394
p2453
I1397
sV39773
p2454
I4052
sV67029
p2455
I7969
sV10088
p2456
I20
sV7322
p2457
I8246
sV10084
p2458
I17
sV10086
p2459
I18
sV10087
p2460
I19
sV10081
p2461
I15
sV10082
p2462
I16
sV18441
p2463
I1177
sV12951
p2464
I459
sV15678
p2465
I804
sV59130
p2466
I6828
sV59136
p2467
I6829
sV63307
p2468
I7418
sV63306
p2469
I7417
sV63303
p2470
I7416
sV63309
p2471
I7419
sV60095
p2472
I6965
sV57597
p2473
I6620
sV37941
p2474
I3755
sV37947
p2475
I3757
sV37944
p2476
I3756
sV12481
p2477
I400
sV12487
p2478
I402
sV12485
p2479
I401
sV34417
p2480
I3318
sV8621
p2481
I8441
sV8623
p2482
I8442
sV39340
p2483
I3991
sV39346
p2484
I3993
sV39345
p2485
I3992
sV39348
p2486
I3994
sV24397
p2487
I2012
sV24395
p2488
I2011
sV24394
p2489
I2010
sV26702
p2490
I2324
sV50713
p2491
I5638
sV26707
p2492
I2326
sV26704
p2493
I2325
sV47514
p2494
I5165
sV47515
p2495
I5166
sV47518
p2496
I5167
sV47519
p2497
I5168
sV40423
p2498
I4159
sV9985
p2499
I8635
sV64175
p2500
I7539
sV11024
p2501
I193
sV14501
p2502
I654
sV14500
p2503
I653
sV64173
p2504
I7538
sV14509
p2505
I655
sV414
p2506
I4311
sV28738
p2507
I2602
sV416
p2508
I4347
sV38161
p2509
I3800
sV38163
p2510
I3801
sV28222
p2511
I2536
sV23282
p2512
I1829
sV28737
p2513
I2601
sV64426
p2514
I7572
sV64421
p2515
I7570
sV66889
p2516
I7945
sV28950
p2517
I2626
sV66883
p2518
I7943
sV66882
p2519
I7942
sV66884
p2520
I7944
sV64833
p2521
I7629
sV61357
p2522
I7159
sV61352
p2523
I7158
sV19173
p2524
I1259
sV19172
p2525
I1258
sV19177
p2526
I1260
sV32815
p2527
I3130
sV32814
p2528
I3129
sV60333
p2529
I7000
sV60332
p2530
I6999
sV60334
p2531
I7001
sV60337
p2532
I7002
sV60338
p2533
I7003
sV35455
p2534
I3461
sV19281
p2535
I1271
sV19280
p2536
I1270
sV19283
p2537
I1273
sV19282
p2538
I1272
sV23860
p2539
I1933
sV65857
p2540
I7803
sV27154
p2541
I2400
sV27155
p2542
I2401
sV65859
p2543
I7804
sV25137
p2544
I2108
sV1779
p2545
I1084
sV64103
p2546
I7528
sV60481
p2547
I7022
sV36228
p2548
I3535
sV25428
p2549
I2163
sV53999
p2550
I6128
sV36223
p2551
I3534
sV46065
p2552
I4942
sV46064
p2553
I4941
sV52240
p2554
I5874
sV53196
p2555
I6007
sV53192
p2556
I6006
sV2424
p2557
I1991
sV16834
p2558
I963
sV16831
p2559
I962
sV16349
p2560
I878
sV61826
p2561
I7217
sV65379
p2562
I7730
sV40947
p2563
I4234
sV12109
p2564
I334
sV52024
p2565
I5845
sV52025
p2566
I5846
sV56071
p2567
I6410
sV52027
p2568
I5847
sV9617
p2569
I8577
sV57302
p2570
I6585
sV9613
p2571
I8576
sV36484
p2572
I3567
sV36481
p2573
I3566
sV9618
p2574
I8578
sV21255
p2575
I1531
sV52184
p2576
I5865
sV21251
p2577
I1530
sV21700
p2578
I1590
sV63464
p2579
I7444
sV63462
p2580
I7442
sV63463
p2581
I7443
sV14888
p2582
I694
sV7696
p2583
I8300
sV37571
p2584
I3710
sV48300
p2585
I5282
sV48307
p2586
I5283
sV44683
p2587
I4746
sV44686
p2588
I4748
sV44685
p2589
I4747
sV26958
p2590
I2360
sV12081
p2591
I332
sV49432
p2592
I5437
sV49431
p2593
I5436
sV49430
p2594
I5435
sV49436
p2595
I5439
sV49435
p2596
I5438
sV14088
p2597
I599
sV14089
p2598
I600
sV3228
p2599
I3046
sV68025
p2600
I8093
sV3224
p2601
I3034
sV68027
p2602
I8094
sV1973
p2603
I1315
sV13274
p2604
I502
sV59836
p2605
I6920
sV59834
p2606
I6918
sV59835
p2607
I6919
sV13278
p2608
I503
sV45081
p2609
I4811
sV44359
p2610
I4699
sV49460
p2611
I5445
sV40302
p2612
I4128
sV44350
p2613
I4698
sV2842
p2614
I2564
sV5477
p2615
I6232
sV58301
p2616
I6706
sV5472
p2617
I6231
sV28507
p2618
I2578
sV5471
p2619
I6225
sV5479
p2620
I6238
sV20076
p2621
I1359
sV45884
p2622
I4928
sV45885
p2623
I4929
sV20071
p2624
I1357
sV62227
p2625
I7257
sV30503
p2626
I2798
sV32505
p2627
I3077
sV30500
p2628
I2797
sV30506
p2629
I2800
sV30504
p2630
I2799
sV18167
p2631
I1142
sV58549
p2632
I6737
sV18165
p2633
I1141
sV65114
p2634
I7668
sV18168
p2635
I1143
sV5511
p2636
I6270
sV5510
p2637
I6269
sV52630
p2638
I5922
sV14461
p2639
I641
sV23674
p2640
I1891
sV66144
p2641
I7832
sV66417
p2642
I7873
sV66410
p2643
I7871
sV49566
p2644
I5463
sV3033
p2645
I2763
sV6518
p2646
I7680
sV6519
p2647
I7684
sV15021
p2648
I717
sV15023
p2649
I719
sV15022
p2650
I718
sV6515
p2651
I7677
sV59303
p2652
I6858
sV31104
p2653
I2884
sV35133
p2654
I3425
sV35132
p2655
I3424
sV35135
p2656
I3426
sV29635
p2657
I2692
sV35136
p2658
I3427
sV39483
p2659
I4018
sV55487
p2660
I6311
sV32481
p2661
I3071
sV23499
p2662
I1860
sV32485
p2663
I3073
sV55961
p2664
I6387
sV34627
p2665
I3343
sV34623
p2666
I3342
sV34620
p2667
I3341
sV34628
p2668
I3344
sV50487
p2669
I5591
sV35863
p2670
I3496
sV50052
p2671
I5524
sV35867
p2672
I3497
sV50056
p2673
I5527
sV50055
p2674
I5526
sV50054
p2675
I5525
sV55263
p2676
I6295
sV16649
p2677
I927
sV55266
p2678
I6297
sV55265
p2679
I6296
sV16641
p2680
I925
sV19615
p2681
I1301
sV16644
p2682
I926
sV32661
p2683
I3107
sV19342
p2684
I1280
sV51901
p2685
I5830
sV6169
p2686
I7205
sV6168
p2687
I7204
sV55806
p2688
I6360
sV65199
p2689
I7689
sV55965
p2690
I6391
sV6161
p2691
I7193
sV65193
p2692
I7685
sV50481
p2693
I5588
sV65197
p2694
I7687
sV65195
p2695
I7686
sV60814
p2696
I7068
sV53320
p2697
I6019
sV55967
p2698
I6392
sV60810
p2699
I7066
sV60811
p2700
I7067
sV64827
p2701
I7627
sV64826
p2702
I7626
sV64829
p2703
I7628
sV10994
p2704
I185
sV56685
p2705
I6501
sV10990
p2706
I183
sV10991
p2707
I184
sV25639
p2708
I2193
sV57373
p2709
I6594
sV25635
p2710
I2192
sV55963
p2711
I6389
sV25633
p2712
I2191
sV57372
p2713
I6593
sV21130
p2714
I1507
sV21132
p2715
I1508
sV46472
p2716
I4990
sV65338
p2717
I7720
sV46471
p2718
I4989
sV53328
p2719
I6024
sV22725
p2720
I1741
sV22726
p2721
I1742
sV22722
p2722
I1739
sV22723
p2723
I1740
sV31810
p2724
I2973
sV22594
p2725
I1722
sV41973
p2726
I4394
sV41977
p2727
I4395
sV17512
p2728
I1055
sV17511
p2729
I1054
sV41979
p2730
I4396
sV8521
p2731
I8420
sV25093
p2732
I2101
sV25092
p2733
I2100
sV25091
p2734
I2099
sV25096
p2735
I2104
sV25095
p2736
I2103
sV25094
p2737
I2102
sV13462
p2738
I534
sV13461
p2739
I533
sV25098
p2740
I2105
sV64892
p2741
I7639
sV18204
p2742
I1147
sV52766
p2743
I5946
sV52762
p2744
I5945
sV52761
p2745
I5944
sV58822
p2746
I6777
sV14783
p2747
I682
sV62418
p2748
I7283
sV52769
p2749
I5947
sV60678
p2750
I7045
sV20661
p2751
I1437
sV20666
p2752
I1438
sV42775
p2753
I4498
sV21395
p2754
I1546
sV42952
p2755
I4530
sV42770
p2756
I4497
sV48441
p2757
I5300
sV63712
p2758
I7470
sV48442
p2759
I5301
sV27499
p2760
I2438
sV45749
p2761
I4911
sV20449
p2762
I1408
sV51355
p2763
I5744
sV9285
p2764
I8529
sV9281
p2765
I8528
sV17470
p2766
I1041
sV11913
p2767
I310
sV18424
p2768
I1174
sV33426
p2769
I3204
sV9926
p2770
I8622
sV15612
p2771
I793
sV15613
p2772
I794
sV30193
p2773
I2749
sV15617
p2774
I795
sV15618
p2775
I796
sV41792
p2776
I4360
sV53410
p2777
I6035
sV7049
p2778
I8205
sV7048
p2779
I8204
sV21539
p2780
I1565
sV63322
p2781
I7420
sV63324
p2782
I7421
sV63328
p2783
I7422
sV25465
p2784
I2169
sV37219
p2785
I3658
sV37962
p2786
I3761
sV37963
p2787
I3762
sV37967
p2788
I3763
sV30998
p2789
I2864
sV30778
p2790
I2825
sV8602
p2791
I8436
sV8600
p2792
I8434
sV8601
p2793
I8435
sV30770
p2794
I2823
sV8607
p2795
I8439
sV30772
p2796
I2824
sV30997
p2797
I2863
sV26720
p2798
I2329
sV39369
p2799
I3998
sV26724
p2800
I2330
sV39366
p2801
I3995
sV39367
p2802
I3996
sV68251
p2803
I8122
sV47827
p2804
I5219
sV47822
p2805
I5218
sV67406
p2806
I8020
sV50192
p2807
I5546
sV4354
p2808
I4591
sV40444
p2809
I4165
sV11002
p2810
I187
sV11000
p2811
I186
sV28712
p2812
I2598
sV14525
p2813
I660
sV11009
p2814
I189
sV11008
p2815
I188
sV38142
p2816
I3796
sV38145
p2817
I3797
sV13705
p2818
I554
sV52839
p2819
I5955
sV9105
p2820
I8501
sV43233
p2821
I4565
sV43231
p2822
I4564
sV43230
p2823
I4563
sV19111
p2824
I1251
sV5709
p2825
I6552
sV51028
p2826
I5678
sV5702
p2827
I6540
sV61333
p2828
I7150
sV61336
p2829
I7151
sV61337
p2830
I7152
sV61338
p2831
I7153
sV60311
p2832
I6996
sV28861
p2833
I2618
sV23803
p2834
I1922
sV23801
p2835
I1921
sV27139
p2836
I2397
sV27132
p2837
I2394
sV27133
p2838
I2395
sV65833
p2839
I7796
sV65832
p2840
I7795
sV65834
p2841
I7797
sV27135
p2842
I2396
sV43491
p2843
I4589
sV25151
p2844
I2114
sV25404
p2845
I2159
sV43948
p2846
I4657
sV25406
p2847
I2160
sV20169
p2848
I1380
sV25408
p2849
I2161
sV42294
p2850
I4428
sV12458
p2851
I393
sV16587
p2852
I918
sV16586
p2853
I917
sV16584
p2854
I916
sV32291
p2855
I3049
sV16581
p2856
I915
sV42292
p2857
I4427
sV21342
p2858
I1542
sV42018
p2859
I4401
sV42019
p2860
I4402
sV21896
p2861
I1614
sV21895
p2862
I1613
sV12699
p2863
I431
sV12698
p2864
I430
sV20160
p2865
I1375
sV56274
p2866
I6443
sV20161
p2867
I1376
sV39963
p2868
I4080
sV39960
p2869
I4078
sV39961
p2870
I4079
sV2469
p2871
I2039
sV21095
p2872
I1504
sV1053
p2873
I99
sV21093
p2874
I1503
sV7821
p2875
I8320
sV19808
p2876
I1324
sV17182
p2877
I1014
sV17184
p2878
I1015
sV17185
p2879
I1016
sV9360
p2880
I8542
sV53316
p2881
I6018
sV8985
p2882
I8491
sV49182
p2883
I5408
sV49181
p2884
I5407
sV37512
p2885
I3702
sV60569
p2886
I7028
sV8980
p2887
I8488
sV49184
p2888
I5409
sV63401
p2889
I7435
sV63407
p2890
I7436
sV20167
p2891
I1379
sV4983
p2892
I5494
sV4984
p2893
I5495
sV45539
p2894
I4879
sV45536
p2895
I4878
sV4988
p2896
I5500
sV48327
p2897
I5284
sV49458
p2898
I5444
sV58148
p2899
I6681
sV14068
p2900
I596
sV49983
p2901
I5516
sV49453
p2902
I5442
sV49455
p2903
I5443
sV49984
p2904
I5517
sV3249
p2905
I3074
sV41092
p2906
I4252
sV41095
p2907
I4254
sV41094
p2908
I4253
sV41097
p2909
I4255
sV41099
p2910
I4256
sV68001
p2911
I8085
sV68005
p2912
I8088
sV68004
p2913
I8087
sV59819
p2914
I6916
sV59810
p2915
I6914
sV13256
p2916
I500
sV59815
p2917
I6915
sV18981
p2918
I1231
sV18980
p2919
I1230
sV1481
p2920
I684
sV5498
p2921
I6262
sV3306
p2922
I3154
sV54333
p2923
I6181
sV54330
p2924
I6180
sV5497
p2925
I6261
sV58365
p2926
I6714
sV5491
p2927
I6255
sV54334
p2928
I6182
sV30563
p2929
I2806
sV18908
p2930
I1225
sV30565
p2931
I2807
sV20055
p2932
I1354
sV20056
p2933
I1355
sV20050
p2934
I1353
sV48583
p2935
I5306
sV1270
p2936
I432
sV40147
p2937
I4108
sV36602
p2938
I3583
sV36600
p2939
I3582
sV40148
p2940
I4109
sV47492
p2941
I5163
sV47491
p2942
I5162
sV47490
p2943
I5161
sV11047
p2944
I197
sV57038
p2945
I6542
sV29383
p2946
I2677
sV40322
p2947
I4132
sV29380
p2948
I2676
sV40852
p2949
I4218
sV29928
p2950
I2716
sV40328
p2951
I4134
sV40329
p2952
I4135
sV29437
p2953
I2680
sV515
p2954
I5769
sV1227
p2955
I363
sV47677
p2956
I5198
sV23659
p2957
I1888
sV23124
p2958
I1800
sV23127
p2959
I1801
sV11040
p2960
I194
sV23121
p2961
I1799
sV15007
p2962
I713
sV6537
p2963
I7729
sV15005
p2964
I712
sV6533
p2965
I7719
sV27728
p2966
I2455
sV48915
p2967
I5360
sV27723
p2968
I2454
sV59362
p2969
I6864
sV59363
p2970
I6865
sV59361
p2971
I6863
sV59366
p2972
I6866
sV9975
p2973
I8632
sV25983
p2974
I2233
sV25982
p2975
I2232
sV31160
p2976
I2890
sV31161
p2977
I2891
sV31164
p2978
I2892
sV35117
p2979
I3422
sV35116
p2980
I3421
sV35114
p2981
I3420
sV35113
p2982
I3419
sV35110
p2983
I3418
sV32467
p2984
I3070
sV3873
p2985
I3868
sV32462
p2986
I3068
sV32461
p2987
I3067
sV62015
p2988
I7239
sV34605
p2989
I3338
sV8471
p2990
I8414
sV44805
p2991
I4768
sV44804
p2992
I4767
sV32249
p2993
I3038
sV44803
p2994
I4766
sV50033
p2995
I5523
sV31382
p2996
I2919
sV31383
p2997
I2920
sV61475
p2998
I7177
sV32609
p2999
I3099
sV56667
p3000
I6498
sV32600
p3001
I3097
sV32606
p3002
I3098
sV19324
p3003
I1279
sV10431
p3004
I76
sV22298
p3005
I1685
sV52964
p3006
I5981
sV9305
p3007
I8534
sV60872
p3008
I7077
sV26456
p3009
I2283
sV9300
p3010
I8531
sV26454
p3011
I2282
sV26453
p3012
I2281
sV26450
p3013
I2279
sV26451
p3014
I2280
sV53627
p3015
I6073
sV24632
p3016
I2037
sV65319
p3017
I7715
sV50584
p3018
I5604
sV59882
p3019
I6928
sV46186
p3020
I4947
sV57794
p3021
I6646
sV26184
p3022
I2253
sV22749
p3023
I1747
sV26180
p3024
I2252
sV22743
p3025
I1744
sV22747
p3026
I1746
sV22744
p3027
I1745
sV38971
p3028
I3913
sV43000
p3029
I4533
sV43553
p3030
I4598
sV43002
p3031
I4534
sV43551
p3032
I4596
sV31838
p3033
I2977
sV31839
p3034
I2978
sV31835
p3035
I2976
sV43558
p3036
I4599
sV31832
p3037
I2975
sV17575
p3038
I1061
sV17576
p3039
I1062
sV3492
p3040
I3384
sV41958
p3041
I4392
sV13408
p3042
I521
sV11663
p3043
I285
sV11660
p3044
I284
sV223
p3045
I1686
sV24967
p3046
I2083
sV24960
p3047
I2081
sV55867
p3048
I6373
sV24963
p3049
I2082
sV60251
p3050
I6990
sV24969
p3051
I2084
sV45187
p3052
I4825
sV62439
p3053
I7288
sV45184
p3054
I4824
sV45181
p3055
I4823
sV20606
p3056
I1428
sV20609
p3057
I1430
sV17794
p3058
I1086
sV17796
p3059
I1087
sV62922
p3060
I7376
sV62435
p3061
I7286
sV17793
p3062
I1085
sV45188
p3063
I4826
sV50482
p3064
I5589
sV60697
p3065
I7050
sV60691
p3066
I7049
sV46983
p3067
I5085
sV46981
p3068
I5084
sV46237
p3069
I4951
sV42207
p3070
I4413
sV5745
p3071
I6603
sV45766
p3072
I4916
sV20935
p3073
I1484
sV41409
p3074
I4313
sV62493
p3075
I7296
sV45983
p3076
I4939
sV41400
p3077
I4312
sV53784
p3078
I6100
sV39731
p3079
I4050
sV53788
p3080
I6101
sV7360
p3081
I8251
sV7361
p3082
I8252
sV44583
p3083
I4731
sV7367
p3084
I8253
sV33158
p3085
I3174
sV12310
p3086
I371
sV33151
p3087
I3173
sV11930
p3088
I312
sV54717
p3089
I6230
sV15631
p3090
I798
sV15634
p3091
I799
sV15635
p3092
I800
sV59171
p3093
I6838
sV54711
p3094
I6227
sV10229
p3095
I40
sV10225
p3096
I39
sV10220
p3097
I38
sV62669
p3098
I7329
sV49842
p3099
I5496
sV7599
p3100
I8293
sV37233
p3101
I3661
sV37238
p3102
I3662
sV37239
p3103
I3663
sV21518
p3104
I1559
sV21519
p3105
I1560
sV62695
p3106
I7335
sV54789
p3107
I6237
sV54788
p3108
I6236
sV62691
p3109
I7334
sV68498
p3110
I8162
sV37720
p3111
I3726
sV37726
p3112
I3727
sV54786
p3113
I6234
sV54785
p3114
I6233
sV49554
p3115
I5461
sV15946
p3116
I832
sV7592
p3117
I8290
sV50205
p3118
I5547
sV7793
p3119
I8316
sV7792
p3120
I8315
sV58776
p3121
I6770
sV62662
p3122
I7325
sV62664
p3123
I7327
sV68278
p3124
I8125
sV68279
p3125
I8126
sV52160
p3126
I5862
sV1036
p3127
I65
sV1035
p3128
I64
sV21331
p3129
I1540
sV52695
p3130
I5931
sV11069
p3131
I200
sV28268
p3132
I2542
sV28262
p3133
I2541
sV14546
p3134
I663
sV8660
p3135
I8444
sV8661
p3136
I8445
sV38123
p3137
I3791
sV38122
p3138
I3790
sV38124
p3139
I3792
sV38127
p3140
I3793
sV4080
p3141
I4208
sV4082
p3142
I4216
sV4083
p3143
I4217
sV13794
p3144
I570
sV4086
p3145
I4219
sV4087
p3146
I4220
sV13798
p3147
I571
sV66593
p3148
I7903
sV66849
p3149
I7940
sV66848
p3150
I7939
sV61448
p3151
I7174
sV66598
p3152
I7904
sV66843
p3153
I7938
sV32856
p3154
I3136
sV55079
p3155
I6267
sV19133
p3156
I1254
sV51553
p3157
I5777
sV61648
p3158
I7201
sV61649
p3159
I7202
sV60999
p3160
I7098
sV62672
p3161
I7331
sV47116
p3162
I5104
sV23821
p3163
I1925
sV28847
p3164
I2612
sV23825
p3165
I1927
sV11490
p3166
I263
sV23829
p3167
I1928
sV28849
p3168
I2613
sV8085
p3169
I8354
sV65814
p3170
I7790
sV8082
p3171
I8353
sV65818
p3172
I7791
sV22199
p3173
I1665
sV22198
p3174
I1664
sV62670
p3175
I7330
sV40345
p3176
I4138
sV16560
p3177
I910
sV64959
p3178
I7650
sV6648
p3179
I7883
sV6647
p3180
I7879
sV52208
p3181
I5871
sV6184
p3182
I7221
sV10815
p3183
I155
sV67722
p3184
I8052
sV56256
p3185
I6437
sV52204
p3186
I5870
sV56520
p3187
I6476
sV53159
p3188
I6005
sV57129
p3189
I6557
sV39941
p3190
I4074
sV57125
p3191
I6556
sV39946
p3192
I4075
sV49150
p3193
I5395
sV42691
p3194
I4490
sV575
p3195
I6611
sV49151
p3196
I5396
sV21075
p3197
I1499
sV42698
p3198
I4491
sV21076
p3199
I1500
sV21073
p3200
I1498
sV6392
p3201
I7499
sV6396
p3202
I7502
sV6397
p3203
I7505
sV6394
p3204
I7501
sV60191
p3205
I6984
sV64143
p3206
I7531
sV2394
p3207
I1943
sV28967
p3208
I2628
sV63423
p3209
I7438
sV63425
p3210
I7439
sV57343
p3211
I6588
sV49332
p3212
I5426
sV66446
p3213
I7876
sV37539
p3214
I3707
sV37538
p3215
I3706
sV49334
p3216
I5428
sV46857
p3217
I5057
sV1854
p3218
I1188
sV1856
p3219
I1193
sV2172
p3220
I1592
sV2177
p3221
I1603
sV4967
p3222
I5476
sV4966
p3223
I5472
sV4965
p3224
I5470
sV14046
p3225
I595
sV49473
p3226
I5448
sV49471
p3227
I5447
sV62597
p3228
I7311
sV1932
p3229
I1278
sV1931
p3230
I1275
sV1937
p3231
I1283
sV2729
p3232
I2413
sV3266
p3233
I3105
sV3268
p3234
I3109
sV58166
p3235
I6684
sV68571
p3236
I8173
sV68570
p3237
I8172
sV63412
p3238
I7437
sV36913
p3239
I3619
sV13239
p3240
I496
sV36916
p3241
I3620
sV13234
p3242
I495
sV7233
p3243
I8229
sV37393
p3244
I3688
sV37392
p3245
I3687
sV37390
p3246
I3686
sV18219
p3247
I1148
sV14225
p3248
I607
sV14226
p3249
I608
sV14958
p3250
I706
sV58348
p3251
I6713
sV62771
p3252
I7352
sV62775
p3253
I7353
sV62779
p3254
I7355
sV62778
p3255
I7354
sV20039
p3256
I1350
sV34849
p3257
I3379
sV20030
p3258
I1348
sV20037
p3259
I1349
sV36626
p3260
I3588
sV36621
p3261
I3587
sV41611
p3262
I4352
sV41610
p3263
I4351
sV15792
p3264
I818
sV59692
p3265
I6892
sV59690
p3266
I6891
sV59697
p3267
I6894
sV59694
p3268
I6893
sV40698
p3269
I4197
sV40699
p3270
I4198
sV63519
p3271
I7449
sV40691
p3272
I4196
sV44392
p3273
I4702
sV47610
p3274
I5191
sV47614
p3275
I5192
sV1203
p3276
I330
sV1202
p3277
I329
sV59343
p3278
I6861
sV8275
p3279
I8387
sV8271
p3280
I8386
sV35178
p3281
I3431
sV39445
p3282
I4013
sV39444
p3283
I4012
sV39441
p3284
I4011
sV39440
p3285
I4010
sV54665
p3286
I6218
sV31632
p3287
I2954
sV31145
p3288
I2886
sV31631
p3289
I2953
sV55443
p3290
I6306
sV55442
p3291
I6305
sV55445
p3292
I6307
sV67855
p3293
I8069
sV34669
p3294
I3351
sV67851
p3295
I8068
sV8411
p3296
I8408
sV53748
p3297
I6096
sV8265
p3298
I8385
sV34665
p3299
I3350
sV39199
p3300
I3957
sV44820
p3301
I4769
sV39193
p3302
I3954
sV39192
p3303
I3953
sV39190
p3304
I3952
sV39196
p3305
I3956
sV39195
p3306
I3955
sV5556
p3307
I6328
sV22504
p3308
I1707
sV22502
p3309
I1706
sV61454
p3310
I7176
sV61104
p3311
I7113
sV61101
p3312
I7111
sV58222
p3313
I6694
sV61102
p3314
I7112
sV6482
p3315
I7625
sV52946
p3316
I5976
sV26478
p3317
I2287
sV6481
p3318
I7621
sV55231
p3319
I6292
sV4144
p3320
I4322
sV4141
p3321
I4314
sV4143
p3322
I4320
sV15396
p3323
I768
sV32440
p3324
I3064
sV32448
p3325
I3065
sV32449
p3326
I3066
sV38954
p3327
I3906
sV38955
p3328
I3907
sV38956
p3329
I3908
sV38957
p3330
I3909
sV22769
p3331
I1748
sV38958
p3332
I3910
sV5303
p3333
I5988
sV18882
p3334
I1222
sV51204
p3335
I5713
sV51207
p3336
I5714
sV43579
p3337
I4604
sV31859
p3338
I2982
sV31852
p3339
I2981
sV31851
p3340
I2980
sV43576
p3341
I4603
sV5919
p3342
I6839
sV51763
p3343
I5805
sV51761
p3344
I5804
sV5914
p3345
I6830
sV55229
p3346
I6291
sV38480
p3347
I3844
sV52419
p3348
I5895
sV38484
p3349
I3845
sV38485
p3350
I3846
sV17557
p3351
I1060
sV17555
p3352
I1059
sV17554
p3353
I1058
sV63992
p3354
I7510
sV39336
p3355
I3989
sV9775
p3356
I8600
sV13429
p3357
I524
sV13426
p3358
I523
sV4554
p3359
I4880
sV4553
p3360
I4877
sV4550
p3361
I4871
sV11685
p3362
I287
sV11686
p3363
I288
sV11683
p3364
I286
sV65486
p3365
I7743
sV56985
p3366
I6535
sV8866
p3367
I8466
sV17235
p3368
I1020
sV45169
p3369
I4822
sV64352
p3370
I7559
sV64422
p3371
I7571
sV20623
p3372
I1435
sV8864
p3373
I8465
sV25239
p3374
I2122
sV8863
p3375
I8464
sV16796
p3376
I952
sV8587
p3377
I8428
sV24165
p3378
I1979
sV42731
p3379
I4494
sV42734
p3380
I4495
sV6078
p3381
I7060
sV2619
p3382
I2254
sV20484
p3383
I1412
sV7346
p3384
I8248
sV10024
p3385
I3
sV10025
p3386
I4
sV10790
p3387
I150
sV13432
p3388
I525
sV7348
p3389
I8249
sV21688
p3390
I1586
sV62905
p3391
I7373
sV33179
p3392
I3175
sV54818
p3393
I6247
sV12334
p3394
I372
sV12335
p3395
I373
sV54810
p3396
I6244
sV54815
p3397
I6246
sV54814
p3398
I6245
sV30482
p3399
I2790
sV30481
p3400
I2789
sV63366
p3401
I7429
sV53458
p3402
I6047
sV63363
p3403
I7428
sV10242
p3404
I44
sV53450
p3405
I6044
sV9026
p3406
I8493
sV53456
p3407
I6046
sV10247
p3408
I46
sV53454
p3409
I6045
sV10245
p3410
I45
sV18680
p3411
I1209
sV33284
p3412
I3194
sV49865
p3413
I5497
sV37259
p3414
I3665
sV51416
p3415
I5758
sV21532
p3416
I1564
sV41423
p3417
I4319
sV68477
p3418
I8160
sV68472
p3419
I8158
sV68473
p3420
I8159
sV68470
p3421
I8157
sV740
p3422
I8258
sV741
p3423
I8260
sV742
p3424
I8262
sV747
p3425
I8271
sV67626
p3426
I8042
sV67624
p3427
I8041
sV51413
p3428
I5757
sV67623
p3429
I8040
sV67620
p3430
I8039
sV24333
p3431
I2009
sV2948
p3432
I2683
sV2945
p3433
I2682
sV2943
p3434
I2679
sV5357
p3435
I6068
sV1052
p3436
I93
sV47861
p3437
I5223
sV5421
p3438
I6158
sV47869
p3439
I5224
sV4312
p3440
I4553
sV4318
p3441
I4560
sV37876
p3442
I3745
sV11046
p3443
I196
sV18024
p3444
I1126
sV61762
p3445
I7211
sV11042
p3446
I195
sV18020
p3447
I1125
sV37871
p3448
I3744
sV38107
p3449
I3787
sV2377
p3450
I1914
sV15961
p3451
I834
sV34477
p3452
I3325
sV34476
p3453
I3324
sV34475
p3454
I3323
sV31462
p3455
I2930
sV50489
p3456
I5592
sV50958
p3457
I5671
sV31464
p3458
I2931
sV35707
p3459
I3483
sV31468
p3460
I2932
sV35703
p3461
I3482
sV35700
p3462
I3481
sV50483
p3463
I5590
sV23594
p3464
I1879
sV47283
p3465
I5127
sV5746
p3466
I6604
sV20284
p3467
I1391
sV5776
p3468
I6640
sV43867
p3469
I4645
sV51576
p3470
I5785
sV51575
p3471
I5784
sV51574
p3472
I5783
sV67996
p3473
I8084
sV25823
p3474
I2221
sV25820
p3475
I2219
sV25821
p3476
I2220
sV59798
p3477
I6909
sV47132
p3478
I5106
sV61593
p3479
I7191
sV61591
p3480
I7190
sV15212
p3481
I742
sV15213
p3482
I743
sV12530
p3483
I407
sV15219
p3484
I744
sV39277
p3485
I3977
sV39272
p3486
I3976
sV39271
p3487
I3975
sV42500
p3488
I4468
sV42506
p3489
I4470
sV42507
p3490
I4471
sV42505
p3491
I4469
sV50957
p3492
I5670
sV12657
p3493
I423
sV12655
p3494
I422
sV12654
p3495
I421
sV52889
p3496
I5964
sV52883
p3497
I5963
sV56506
p3498
I6474
sV56504
p3499
I6473
sV63991
p3500
I7509
sV19845
p3501
I1332
sV19844
p3502
I1331
sV63994
p3503
I7511
sV32162
p3504
I3027
sV16321
p3505
I874
sV19512
p3506
I1296
sV19519
p3507
I1298
sV19518
p3508
I1297
sV61844
p3509
I7222
sV58247
p3510
I6698
sV61849
p3511
I7223
sV64168
p3512
I7535
sV64169
p3513
I7536
sV43905
p3514
I4650
sV43907
p3515
I4651
sV2375
p3516
I1908
sV26222
p3517
I2259
sV2371
p3518
I1902
sV64167
p3519
I7534
sV49671
p3520
I5477
sV46377
p3521
I4979
sV49676
p3522
I5478
sV49678
p3523
I5479
sV63195
p3524
I7398
sV4944
p3525
I5440
sV45570
p3526
I4888
sV45571
p3527
I4889
sV41858
p3528
I4376
sV45574
p3529
I4890
sV45575
p3530
I4891
sV41857
p3531
I4375
sV41853
p3532
I4374
sV53132
p3533
I6003
sV53137
p3534
I6004
sV2110
p3535
I1505
sV2111
p3536
I1506
sV2117
p3537
I1516
sV14023
p3538
I590
sV14029
p3539
I591
sV52622
p3540
I5918
sV68045
p3541
I8097
sV52628
p3542
I5919
sV52629
p3543
I5920
sV13214
p3544
I493
sV14324
p3545
I619
sV36939
p3546
I3624
sV36398
p3547
I3555
sV53866
p3548
I6112
sV53688
p3549
I6082
sV10497
p3550
I87
sV57369
p3551
I6591
sV53684
p3552
I6081
sV53681
p3553
I6080
sV10490
p3554
I86
sV880
p3555
I8459
sV14979
p3556
I709
sV14975
p3557
I707
sV14976
p3558
I708
sV33952
p3559
I3254
sV33342
p3560
I3200
sV20546
p3561
I1423
sV20544
p3562
I1421
sV20545
p3563
I1422
sV20540
p3564
I1420
sV38730
p3565
I3869
sV4014
p3566
I4106
sV38734
p3567
I3870
sV34869
p3568
I3381
sV20549
p3569
I1424
sV9884
p3570
I8610
sV40100
p3571
I4099
sV40101
p3572
I4100
sV44621
p3573
I4740
sV7501
p3574
I8278
sV47459
p3575
I5157
sV47458
p3576
I5156
sV47451
p3577
I5153
sV47455
p3578
I5155
sV47454
p3579
I5154
sV48729
p3580
I5325
sV48724
p3581
I5323
sV15774
p3582
I815
sV48727
p3583
I5324
sV6860
p3584
I8176
sV67299
p3585
I8007
sV40816
p3586
I4214
sV40817
p3587
I4215
sV40815
p3588
I4213
sV8255
p3589
I8383
sV8257
p3590
I8384
sV1268
p3591
I427
sV8253
p3592
I8382
sV666
p3593
I7905
sV15518
p3594
I788
sV34399
p3595
I3315
sV64921
p3596
I7643
sV15510
p3597
I784
sV15512
p3598
I785
sV30836
p3599
I2834
sV15517
p3600
I787
sV15516
p3601
I786
sV39469
p3602
I4015
sV31612
p3603
I2949
sV31613
p3604
I2950
sV9230
p3605
I8526
sV39460
p3606
I4014
sV68041
p3607
I8096
sV37112
p3608
I3647
sV34646
p3609
I3346
sV34131
p3610
I3274
sV34649
p3611
I3347
sV34138
p3612
I3275
sV67873
p3613
I8075
sV67872
p3614
I8074
sV67871
p3615
I8073
sV67870
p3616
I8072
sV9821
p3617
I8607
sV9828
p3618
I8608
sV44848
p3619
I4774
sV50569
p3620
I5598
sV50568
p3621
I5597
sV44842
p3622
I4772
sV44847
p3623
I4773
sV23169
p3624
I1811
sV66471
p3625
I7880
sV66474
p3626
I7881
sV66476
p3627
I7882
sV61180
p3628
I7123
sV22563
p3629
I1712
sV61129
p3630
I7114
sV22564
p3631
I1713
sV22565
p3632
I1714
sV5443
p3633
I6188
sV22568
p3634
I1715
sV22569
p3635
I1716
sV26415
p3636
I2272
sV34503
p3637
I3328
sV4128
p3638
I4290
sV4127
p3639
I4288
sV32420
p3640
I3062
sV28128
p3641
I2521
sV4194
p3642
I4388
sV57365
p3643
I6589
sV56191
p3644
I6429
sV56194
p3645
I6430
sV38937
p3646
I3903
sV22787
p3647
I1751
sV53864
p3648
I6111
sV22783
p3649
I1750
sV57368
p3650
I6590
sV31872
p3651
I2985
sV31873
p3652
I2986
sV11515
p3653
I267
sV11516
p3654
I268
sV23788
p3655
I1916
sV11513
p3656
I266
sV27094
p3657
I2389
sV27096
p3658
I2390
sV27091
p3659
I2387
sV27090
p3660
I2386
sV27093
p3661
I2388
sV51219
p3662
I5717
sV51962
p3663
I5835
sV51215
p3664
I5716
sV5976
p3665
I6905
sV51210
p3666
I5715
sV56999
p3667
I6537
sV52432
p3668
I5898
sV52431
p3669
I5897
sV52436
p3670
I5899
sV25035
p3671
I2092
sV25789
p3672
I2214
sV25032
p3673
I2091
sV64891
p3674
I7638
sV46419
p3675
I4986
sV27320
p3676
I2417
sV65354
p3677
I7724
sV33617
p3678
I3218
sV65359
p3679
I7725
sV27328
p3680
I2418
sV54666
p3681
I6219
sV65621
p3682
I7761
sV64555
p3683
I7585
sV54667
p3684
I6220
sV64404
p3685
I7569
sV45142
p3686
I4817
sV45495
p3687
I4869
sV45145
p3688
I4818
sV45496
p3689
I4870
sV6055
p3690
I7026
sV64862
p3691
I7634
sV36894
p3692
I3613
sV45390
p3693
I4854
sV32911
p3694
I3142
sV36890
p3695
I3612
sV36899
p3696
I3614
sV9227
p3697
I8525
sV9220
p3698
I8524
sV63728
p3699
I7474
sV23066
p3700
I1791
sV62714
p3701
I7337
sV63727
p3702
I7473
sV12359
p3703
I375
sV12357
p3704
I374
sV63385
p3705
I7433
sV42869
p3706
I4511
sV63380
p3707
I7430
sV63382
p3708
I7432
sV3545
p3709
I3460
sV68457
p3710
I8155
sV3542
p3711
I3455
sV3543
p3712
I3458
sV21550
p3713
I1568
sV68458
p3714
I8156
sV25451
p3715
I2167
sV49804
p3716
I5490
sV47229
p3717
I5117
sV2965
p3718
I2694
sV2964
p3719
I2693
sV44454
p3720
I4710
sV21542
p3721
I1566
sV40719
p3722
I4203
sV26784
p3723
I2338
sV760
p3724
I8294
sV29862
p3725
I2713
sV29860
p3726
I2712
sV24067
p3727
I1965
sV24319
p3728
I2004
sV24317
p3729
I2003
sV24315
p3730
I2002
sV24314
p3731
I2001
sV24313
p3732
I2000
sV24311
p3733
I1999
sV58738
p3734
I6767
sV5379
p3735
I6102
sV33384
p3736
I3201
sV1078
p3737
I148
sV58733
p3738
I6765
sV53499
p3739
I6054
sV58736
p3740
I6766
sV61796
p3741
I7213
sV31268
p3742
I2905
sV4336
p3743
I4577
sV54123
p3744
I6151
sV54122
p3745
I6150
sV33801
p3746
I3237
sV54126
p3747
I6153
sV54125
p3748
I6152
sV54129
p3749
I6155
sV54128
p3750
I6154
sV37851
p3751
I3741
sV20200
p3752
I1385
sV40104
p3753
I4101
sV67605
p3754
I8036
sV31409
p3755
I2923
sV67619
p3756
I8038
sV51512
p3757
I5770
sV23717
p3758
I1903
sV51518
p3759
I5771
sV5764
p3760
I6630
sV23571
p3761
I1874
sV27664
p3762
I2449
sV67464
p3763
I8025
sV67465
p3764
I8026
sV25800
p3765
I2218
sV8193
p3766
I8370
sV66739
p3767
I7927
sV43908
p3768
I4652
sV6435
p3769
I7558
sV42043
p3770
I4404
sV23318
p3771
I1836
sV23319
p3772
I1837
sV47152
p3773
I5108
sV23313
p3774
I1833
sV23316
p3775
I1835
sV23314
p3776
I1834
sV15238
p3777
I748
sV12511
p3778
I406
sV35725
p3779
I3485
sV50970
p3780
I5673
sV24856
p3781
I2067
sV50972
p3782
I5674
sV50973
p3783
I5675
sV7429
p3784
I8264
sV39253
p3785
I3971
sV16521
p3786
I905
sV16522
p3787
I906
sV42528
p3788
I4474
sV42529
p3789
I4475
sV6865
p3790
I8181
sV12639
p3791
I417
sV42521
p3792
I4473
sV10857
p3793
I160
sV10852
p3794
I159
sV56569
p3795
I6479
sV58493
p3796
I6731
sV10858
p3797
I161
sV63850
p3798
I7487
sV60956
p3799
I7096
sV63979
p3800
I7507
sV63970
p3801
I7506
sV63854
p3802
I7488
sV65729
p3803
I7781
sV63585
p3804
I7457
sV65727
p3805
I7780
sV26202
p3806
I2257
sV43435
p3807
I4584
sV43430
p3808
I4583
sV43920
p3809
I4655
sV21963
p3810
I1625
sV46357
p3811
I4975
sV49658
p3812
I5471
sV42384
p3813
I4441
sV42385
p3814
I4442
sV49121
p3815
I5391
sV17691
p3816
I1074
sV17693
p3817
I1075
sV56382
p3818
I6454
sV3737
p3819
I3682
sV17699
p3820
I1076
sV56388
p3821
I6456
sV4690
p3822
I5071
sV4921
p3823
I5414
sV4920
p3824
I5413
sV13584
p3825
I543
sV13586
p3826
I544
sV45556
p3827
I4884
sV11720
p3828
I293
sV57165
p3829
I6562
sV11729
p3830
I294
sV54465
p3831
I6189
sV58121
p3832
I6676
sV58120
p3833
I6675
sV62558
p3834
I7310
sV17075
p3835
I1000
sV62550
p3836
I7308
sV62554
p3837
I7309
sV36406
p3838
I3557
sV36400
p3839
I3556
sV60580
p3840
I7030
sV60775
p3841
I7058
sV60776
p3842
I7059
sV53809
p3843
I6107
sV45697
p3844
I4904
sV35054
p3845
I3407
sV9691
p3846
I8589
sV14919
p3847
I699
sV62732
p3848
I7340
sV62731
p3849
I7339
sV14911
p3850
I698
sV58386
p3851
I6716
sV41388
p3852
I4307
sV34800
p3853
I3369
sV34801
p3854
I3370
sV48299
p3855
I5281
sV55787
p3856
I6353
sV4305
p3857
I4543
sV44600
p3858
I4736
sV41127
p3859
I4262
sV1792
p3860
I1110
sV15753
p3861
I813
sV15751
p3862
I812
sV15757
p3863
I814
sV48747
p3864
I5329
sV48744
p3865
I5328
sV59651
p3866
I6886
sV40382
p3867
I4147
sV40381
p3868
I4146
sV40384
p3869
I4148
sV40385
p3870
I4149
sV29326
p3871
I2670
sV57830
p3872
I6649
sV18253
p3873
I1152
sV18257
p3874
I1153
sV18259
p3875
I1155
sV18258
p3876
I1154
sV6591
p3877
I7814
sV59381
p3878
I6870
sV39402
p3879
I4004
sV39408
p3880
I4005
sV59471
p3881
I6876
sV31673
p3882
I2959
sV31670
p3883
I2958
sV34397
p3884
I3314
sV47430
p3885
I5149
sV47435
p3886
I5150
sV18467
p3887
I1183
sV30834
p3888
I2833
sV14125
p3889
I605
sV55657
p3890
I6339
sV59840
p3891
I6921
sV44866
p3892
I4778
sV40524
p3893
I4168
sV44862
p3894
I4777
sV44860
p3895
I4776
sV58592
p3896
I6742
sV32275
p3897
I3045
sV40528
p3898
I4169
sV40529
p3899
I4170
sV9949
p3900
I8630
sV16320
p3901
I873
sV3093
p3902
I2853
sV643
p3903
I7556
sV3091
p3904
I2851
sV645
p3905
I7582
sV16031
p3906
I843
sV3094
p3907
I2854
sV646
p3908
I7591
sV28326
p3909
I2554
sV3098
p3910
I2861
sV28497
p3911
I2577
sV28491
p3912
I2576
sV28320
p3913
I2552
sV23140
p3914
I1807
sV22238
p3915
I1671
sV22239
p3916
I1672
sV22237
p3917
I1670
sV22234
p3918
I1669
sV26438
p3919
I2276
sV9317
p3920
I8536
sV4104
p3921
I4245
sV4106
p3922
I4248
sV3125
p3923
I2902
sV31098
p3924
I2883
sV26437
p3925
I2275
sV62455
p3926
I7292
sV24698
p3927
I2041
sV24699
p3928
I2042
sV24697
p3929
I2040
sV68385
p3930
I8146
sV38316
p3931
I3816
sV32409
p3932
I3060
sV38315
p3933
I3815
sV55158
p3934
I6277
sV3892
p3935
I3898
sV3893
p3936
I3902
sV3890
p3937
I3897
sV28141
p3938
I2523
sV56178
p3939
I6426
sV56177
p3940
I6425
sV56172
p3941
I6424
sV56872
p3942
I6525
sV51808
p3943
I5811
sV31890
p3944
I2990
sV51235
p3945
I5721
sV51233
p3946
I5720
sV11532
p3947
I271
sV11531
p3948
I270
sV11530
p3949
I269
sV11536
p3950
I273
sV11535
p3951
I272
sV61417
p3952
I7168
sV61416
p3953
I7167
sV61415
p3954
I7166
sV61147
p3955
I7115
sV61148
p3956
I7116
sV51720
p3957
I5800
sV60546
p3958
I7025
sV56712
p3959
I6505
sV56716
p3960
I6506
sV64640
p3961
I7604
sV25019
p3962
I2089
sV21753
p3963
I1600
sV9793
p3964
I8603
sV46160
p3965
I4945
sV46161
p3966
I4946
sV27340
p3967
I2421
sV27343
p3968
I2422
sV27347
p3969
I2424
sV27346
p3970
I2423
sV25276
p3971
I2129
sV25273
p3972
I2128
sV64392
p3973
I7565
sV64391
p3974
I7564
sV25278
p3975
I2130
sV46297
p3976
I4965
sV42261
p3977
I4419
sV42260
p3978
I4418
sV52458
p3979
I5900
sV39791
p3980
I4054
sV57444
p3981
I6600
sV9207
p3982
I8514
sV2658
p3983
I2301
sV10064
p3984
I8
sV10068
p3985
I9
sV57448
p3986
I6602
sV63010
p3987
I7387
sV65237
p3988
I7699
sV12377
p3989
I379
sV12378
p3990
I380
sV33135
p3991
I3169
sV51569
p3992
I5782
sV45121
p3993
I4813
sV45123
p3994
I4814
sV65946
p3995
I7820
sV45128
p3996
I4815
sV65940
p3997
I7818
sV18601
p3998
I1197
sV9065
p3999
I8497
sV9064
p4000
I8496
sV53498
p4001
I6053
sV44297
p4002
I4688
sV53495
p4003
I6052
sV10282
p4004
I55
sV10280
p4005
I54
sV49356
p4006
I5430
sV21573
p4007
I1574
sV21575
p4008
I1575
sV24059
p4009
I1962
sV68432
p4010
I8153
sV17484
p4011
I1043
sV17487
p4012
I1045
sV17486
p4013
I1044
sV17481
p4014
I1042
sV22847
p4015
I1756
sV22846
p4016
I1755
sV17488
p4017
I1046
sV22842
p4018
I1754
sV13395
p4019
I520
sV4483
p4020
I4770
sV20995
p4021
I1491
sV20994
p4022
I1490
sV41465
p4023
I4325
sV40730
p4024
I4204
sV40737
p4025
I4205
sV702
p4026
I8202
sV703
p4027
I8203
sV33792
p4028
I3233
sV58712
p4029
I6761
sV33790
p4030
I3232
sV52517
p4031
I5914
sV33796
p4032
I3234
sV58240
p4033
I6697
sV58718
p4034
I6762
sV33799
p4035
I3235
sV20409
p4036
I1398
sV60041
p4037
I6954
sV20199
p4038
I1384
sV30448
p4039
I2780
sV13024
p4040
I471
sV31249
p4041
I2901
sV3037
p4042
I2769
sV31240
p4043
I2900
sV17876
p4044
I1097
sV11088
p4045
I207
sV11083
p4046
I204
sV18063
p4047
I1129
sV11080
p4048
I203
sV11087
p4049
I206
sV17879
p4050
I1099
sV33867
p4051
I3243
sV33866
p4052
I3242
sV23550
p4053
I1871
sV66829
p4054
I7936
sV64163
p4055
I7533
sV66827
p4056
I7935
sV66534
p4057
I7893
sV66289
p4058
I7862
sV66288
p4059
I7861
sV66823
p4060
I7933
sV66821
p4061
I7932
sV66820
p4062
I7931
sV6464
p4063
I7603
sV61622
p4064
I7197
sV61623
p4065
I7198
sV25866
p4066
I2225
sV61433
p4067
I7173
sV47175
p4068
I5110
sV66755
p4069
I7928
sV41028
p4070
I4243
sV34566
p4071
I3333
sV8570
p4072
I8424
sV34569
p4073
I3334
sV8579
p4074
I8426
sV15253
p4075
I749
sV12576
p4076
I411
sV50913
p4077
I5662
sV39239
p4078
I3966
sV31422
p4079
I2928
sV31421
p4080
I2927
sV31420
p4081
I2926
sV39231
p4082
I3964
sV39235
p4083
I3965
sV19081
p4084
I1243
sV16059
p4085
I848
sV19735
p4086
I1317
sV19734
p4087
I1316
sV19736
p4088
I1318
sV16053
p4089
I847
sV16500
p4090
I903
sV40370
p4091
I4145
sV6622
p4092
I7851
sV26596
p4093
I2303
sV52843
p4094
I5957
sV52841
p4095
I5956
sV50624
p4096
I5610
sV50627
p4097
I5611
sV50620
p4098
I5608
sV50623
p4099
I5609
sV65707
p4100
I7778
sV65250
p4101
I7702
sV65252
p4102
I7703
sV65259
p4103
I7704
sV61889
p4104
I7228
sV21010
p4105
I1495
sV22062
p4106
I1646
sV22065
p4107
I1647
sV4712
p4108
I5105
sV2337
p4109
I1842
sV2339
p4110
I1843
sV4719
p4111
I5111
sV57259
p4112
I6573
sV34822
p4113
I3376
sV25481
p4114
I2170
sV37835
p4115
I3739
sV46339
p4116
I4971
sV46338
p4117
I4970
sV49105
p4118
I5386
sV46624
p4119
I5021
sV41812
p4120
I4362
sV41817
p4121
I4364
sV41816
p4122
I4363
sV17671
p4123
I1071
sV4903
p4124
I5373
sV4674
p4125
I5037
sV60284
p4126
I6993
sV4906
p4127
I5377
sV57638
p4128
I6629
sV49176
p4129
I5404
sV57635
p4130
I6628
sV57145
p4131
I6560
sV57146
p4132
I6561
sV60025
p4133
I6951
sV60024
p4134
I6950
sV60027
p4135
I6952
sV60752
p4136
I7054
sV60751
p4137
I7053
sV52662
p4138
I5926
sV129
p4139
I454
sV60759
p4140
I7056
sV60758
p4141
I7055
sV22838
p4142
I1753
sV53825
p4143
I6108
sV1189
p4144
I308
sV28121
p4145
I2520
sV5426
p4146
I6167
sV1182
p4147
I303
sV62285
p4148
I7266
sV34829
p4149
I3378
sV34820
p4150
I3375
sV15778
p4151
I816
sV34827
p4152
I3377
sV1347
p4153
I535
sV7241
p4154
I8232
sV36687
p4155
I3593
sV36685
p4156
I3592
sV36682
p4157
I3591
sV53086
p4158
I5998
sV15730
p4159
I811
sV41101
p4160
I4257
sV41104
p4161
I4258
sV41109
p4162
I4259
sV12290
p4163
I369
sV10541
p4164
I104
sV10542
p4165
I105
sV10549
p4166
I107
sV10548
p4167
I106
sV29309
p4168
I2667
sV63223
p4169
I7407
sV63221
p4170
I7406
sV29302
p4171
I2666
sV37482
p4172
I3696
sV33650
p4173
I3220
sV14934
p4174
I701
sV14935
p4175
I702
sV18279
p4176
I1160
sV37334
p4177
I3675
sV37488
p4178
I3698
sV37332
p4179
I3674
sV15089
p4180
I728
sV30876
p4181
I2840
sV15084
p4182
I727
sV15083
p4183
I726
sV59908
p4184
I6932
sV8216
p4185
I8375
sV9186
p4186
I8513
sV57957
p4187
I6656
sV50332
p4188
I5570
sV47415
p4189
I5147
sV37152
p4190
I3648
sV37155
p4191
I3649
sV47410
p4192
I5146
sV34178
p4193
I3286
sV34179
p4194
I3287
sV9566
p4195
I8570
sV34173
p4196
I3283
sV34177
p4197
I3285
sV34174
p4198
I3284
sV53777
p4199
I6099
sV44886
p4200
I4785
sV44883
p4201
I4784
sV14427
p4202
I637
sV58507
p4203
I6733
sV14425
p4204
I636
sV11141
p4205
I218
sV24504
p4206
I2023
sV14429
p4207
I638
sV38084
p4208
I3782
sV38081
p4209
I3781
sV1514
p4210
I735
sV934
p4211
I8540
sV1511
p4212
I733
sV38089
p4213
I3783
sV36594
p4214
I3581
sV5384
p4215
I6109
sV28160
p4216
I2526
sV28161
p4217
I2527
sV33105
p4218
I3167
sV55173
p4219
I6283
sV38330
p4220
I3820
sV58969
p4221
I6804
sV38332
p4222
I3821
sV38333
p4223
I3822
sV33097
p4224
I3163
sV35220
p4225
I3440
sV56482
p4226
I6468
sV33722
p4227
I3223
sV56486
p4228
I6470
sV56487
p4229
I6471
sV56485
p4230
I6469
sV11557
p4231
I274
sV43080
p4232
I4547
sV33721
p4233
I3222
sV51252
p4234
I5725
sV5970
p4235
I6895
sV51706
p4236
I5797
sV51707
p4237
I5798
sV51259
p4238
I5726
sV51742
p4239
I5802
sV61169
p4240
I7117
sV48881
p4241
I5348
sV48883
p4242
I5349
sV65133
p4243
I7674
sV65134
p4244
I7675
sV50738
p4245
I5641
sV48886
p4246
I5350
sV16330
p4247
I875
sV32171
p4248
I3028
sV43889
p4249
I4648
sV54274
p4250
I6172
sV65394
p4251
I7734
sV27363
p4252
I2429
sV65399
p4253
I7735
sV56150
p4254
I6420
sV56151
p4255
I6421
sV32179
p4256
I3030
sV56776
p4257
I6514
sV8871
p4258
I8468
sV63966
p4259
I7503
sV57283
p4260
I6581
sV57282
p4261
I6580
sV57281
p4262
I6579
sV25291
p4263
I2137
sV25290
p4264
I2136
sV56995
p4265
I6536
sV16266
p4266
I862
sV16269
p4267
I863
sV19835
p4268
I1328
sV52477
p4269
I5904
sV52470
p4270
I5903
sV57466
p4271
I6605
sV10738
p4272
I143
sV53709
p4273
I6087
sV10737
p4274
I142
sV981
p4275
I8605
sV10732
p4276
I140
sV10045
p4277
I6
sV24117
p4278
I1971
sV66171
p4279
I7841
sV58888
p4280
I6791
sV58887
p4281
I6790
sV64447
p4282
I7575
sV64917
p4283
I7642
sV45107
p4284
I4812
sV44275
p4285
I4685
sV9082
p4286
I8500
sV9081
p4287
I8499
sV36112
p4288
I3519
sV21598
p4289
I1579
sV46814
p4290
I5049
sV36110
p4291
I3518
sV22869
p4292
I1761
sV3500
p4293
I3394
sV22862
p4294
I1758
sV68144
p4295
I8109
sV3504
p4296
I3402
sV22865
p4297
I1760
sV22864
p4298
I1759
sV2670
p4299
I2323
sV2679
p4300
I2339
sV2678
p4301
I2337
sV33548
p4302
I3215
sV5339
p4303
I6031
sV5338
p4304
I6029
sV58267
p4305
I6700
sV30465
p4306
I2785
sV30467
p4307
I2786
sV30461
p4308
I2784
sV30468
p4309
I2787
sV38656
p4310
I3862
sV36144
p4311
I3522
sV36143
p4312
I3521
sV36148
p4313
I3523
sV33847
p4314
I3239
sV54164
p4315
I6156
sV33512
p4316
I3210
sV62074
p4317
I7244
sV17817
p4318
I1092
sV62076
p4319
I7245
sV3175
p4320
I2967
sV3176
p4321
I2968
sV30796
p4322
I2827
sV30798
p4323
I2828
sV6540
p4324
I7736
sV726
p4325
I8237
sV40750
p4326
I4207
sV724
p4327
I8231
sV720
p4328
I8227
sV67130
p4329
I7982
sV23533
p4330
I1865
sV1166
p4331
I283
sV66518
p4332
I7888
sV23536
p4333
I1866
sV1163
p4334
I281
sV66513
p4335
I7887
sV46364
p4336
I4978
sV64400
p4337
I7568
sV59789
p4338
I6906
sV49667
p4339
I5473
sV41522
p4340
I4337
sV25844
p4341
I2222
sV25849
p4342
I2223
sV3195
p4343
I3003
sV28209
p4344
I2534
sV49668
p4345
I5474
sV28978
p4346
I2632
sV34546
p4347
I3332
sV12557
p4348
I408
sV54313
p4349
I6176
sV793
p4350
I8332
sV27192
p4351
I2404
sV8559
p4352
I8423
sV65893
p4353
I7812
sV28759
p4354
I2607
sV65891
p4355
I7811
sV68312
p4356
I8133
sV67149
p4357
I7983
sV50938
p4358
I5667
sV35948
p4359
I3504
sV54314
p4360
I6177
sV7463
p4361
I8270
sV35761
p4362
I3488
sV35941
p4363
I3503
sV50937
p4364
I5666
sV19718
p4365
I1312
sV65091
p4366
I7665
sV19712
p4367
I1310
sV32235
p4368
I3033
sV19714
p4369
I1311
sV52864
p4370
I5960
sV52866
p4371
I5961
sV52860
p4372
I5958
sV52861
p4373
I5959
sV22664
p4374
I1733
sV52868
p4375
I5962
sV26574
p4376
I2299
sV26576
p4377
I2300
sV24712
p4378
I2047
sV24711
p4379
I2046
sV24714
p4380
I2048
sV50642
p4381
I5615
sV50643
p4382
I5616
sV50644
p4383
I5617
sV50645
p4384
I5618
sV61202
p4385
I7131
sV61201
p4386
I7130
sV22003
p4387
I1634
sV22002
p4388
I1633
sV22006
p4389
I1635
sV31913
p4390
I2998
sV31911
p4391
I2997
sV31910
p4392
I2996
sV2317
p4393
I1812
sV41847
p4394
I4373
sV3773
p4395
I3728
sV3776
p4396
I3730
sV4654
p4397
I5006
sV4651
p4398
I4999
sV41833
p4399
I4370
sV41832
p4400
I4369
sV17384
p4401
I1030
sV41830
p4402
I4367
sV57614
p4403
I6624
sV57612
p4404
I6623
sV57618
p4405
I6625
sV43692
p4406
I4610
sV51115
p4407
I5694
sV51110
p4408
I5692
sV51112
p4409
I5693
sV63938
p4410
I7500
sV7887
p4411
I8324
sV17030
p4412
I988
sV17031
p4413
I989
sV17033
p4414
I990
sV17034
p4415
I991
sV17035
p4416
I992
sV20742
p4417
I1450
sV17037
p4418
I993
sV17039
p4419
I994
sV62515
p4420
I7303
sV62514
p4421
I7302
sV20748
p4422
I1452
sV20749
p4423
I1453
sV62511
p4424
I7301
sV11121
p4425
I217
sV49161
p4426
I5398
sV21293
p4427
I1535
sV46314
p4428
I4967
sV49165
p4429
I5399
sV46311
p4430
I4966
sV49166
p4431
I5400
sV45666
p4432
I4901
sV45663
p4433
I4900
sV45844
p4434
I4920
sV20529
p4435
I1417
sV45848
p4436
I4921
sV45849
p4437
I4922
sV41343
p4438
I4302
sV41342
p4439
I4301
sV16925
p4440
I975
sV16926
p4441
I976
sV16921
p4442
I974
sV7268
p4443
I8239
sV44647
p4444
I4743
sV7260
p4445
I8238
sV12235
p4446
I352
sV12237
p4447
I353
sV12230
p4448
I351
sV54424
p4449
I6187
sV12238
p4450
I354
sV41168
p4451
I4270
sV6809
p4452
I8100
sV15712
p4453
I809
sV15711
p4454
I808
sV6801
p4455
I8090
sV53513
p4456
I6059
sV10561
p4457
I110
sV53510
p4458
I6058
sV53517
p4459
I6063
sV53516
p4460
I6062
sV53515
p4461
I6061
sV53514
p4462
I6060
sV57878
p4463
I6650
sV26997
p4464
I2367
sV10568
p4465
I111
sV63208
p4466
I7401
sV21433
p4467
I1552
sV63200
p4468
I7399
sV63203
p4469
I7400
sV3991
p4470
I4067
sV37313
p4471
I3673
sV37312
p4472
I3672
sV32655
p4473
I3104
sV59928
p4474
I6938
sV59929
p4475
I6939
sV54050
p4476
I6138
sV59925
p4477
I6937
sV30325
p4478
I2762
sV65895
p4479
I7813
sV26808
p4480
I2343
sV26805
p4481
I2342
sV37174
p4482
I3654
sV68604
p4483
I8177
sV67362
p4484
I8013
sV40562
p4485
I4176
sV40560
p4486
I4174
sV40561
p4487
I4175
sV40564
p4488
I4177
sV50090
p4489
I5533
sV28360
p4490
I2558
sV14408
p4491
I633
sV28367
p4492
I2559
sV1283
p4493
I441
sV34990
p4494
I3393
sV14406
p4495
I631
sV14407
p4496
I632
sV14402
p4497
I630
sV8765
p4498
I8456
sV1579
p4499
I817
sV8727
p4500
I8454
sV6154
p4501
I7182
sV1570
p4502
I807
sV50892
p4503
I5661
sV13832
p4504
I574
sV34513
p4505
I3330
sV55119
p4506
I6271
sV12870
p4507
I448
sV34151
p4508
I3281
sV8495
p4509
I8416
sV34159
p4510
I3282
sV35207
p4511
I3435
sV35204
p4512
I3434
sV35067
p4513
I3411
sV35208
p4514
I3436
sV28986
p4515
I2633
sV28987
p4516
I2634
sV5997
p4517
I6944
sV53875
p4518
I6114
sV5999
p4519
I6946
sV28988
p4520
I2635
sV19388
p4521
I1284
sV57396
p4522
I6597
sV51271
p4523
I5732
sV51277
p4524
I5733
sV22270
p4525
I1679
sV22271
p4526
I1680
sV10486
p4527
I83
sV22275
p4528
I1681
sV57392
p4529
I6596
sV25729
p4530
I2207
sV25056
p4531
I2094
sV43864
p4532
I4644
sV25721
p4533
I2205
sV53075
p4534
I5997
sV65651
p4535
I7770
sV39004
p4536
I3916
sV45778
p4537
I4918
sV57269
p4538
I6576
sV2883
p4539
I2610
sV54615
p4540
I6210
sV57266
p4541
I6575
sV57262
p4542
I6574
sV245
p4543
I2022
sV55802
p4544
I6357
sV240
p4545
I1958
sV243
p4546
I1996
sV242
p4547
I1987
sV51857
p4548
I5822
sV249
p4549
I2079
sV51851
p4550
I5821
sV16711
p4551
I940
sV22495
p4552
I1704
sV22492
p4553
I1703
sV22490
p4554
I1702
sV62708
p4555
I7336
sV12000
p4556
I325
sV64600
p4557
I7592
sV64603
p4558
I7593
sV64607
p4559
I7594
sV26381
p4560
I2269
sV50326
p4561
I5566
sV9533
p4562
I8563
sV9530
p4563
I8562
sV65516
p4564
I7747
sV65517
p4565
I7748
sV60134
p4566
I6973
sV46788
p4567
I5043
sV50323
p4568
I5564
sV24894
p4569
I2077
sV46786
p4570
I5042
sV24897
p4571
I2078
sV49573
p4572
I5464
sV21601
p4573
I1581
sV63381
p4574
I7431
sV7493
p4575
I8275
sV63730
p4576
I7475
sV64931
p4577
I7645
sV26032
p4578
I2239
sV26033
p4579
I2240
sV42804
p4580
I4502
sV44782
p4581
I4762
sV44787
p4582
I4764
sV44784
p4583
I4763
sV46879
p4584
I5067
sV68161
p4585
I8111
sV3520
p4586
I3433
sV58069
p4587
I6669
sV37780
p4588
I3731
sV37781
p4589
I3732
sV46870
p4590
I5063
sV46876
p4591
I5066
sV338
p4592
I3236
sV7491
p4593
I8274
sV36787
p4594
I3604
sV10717
p4595
I139
sV36783
p4596
I3603
sV53721
p4597
I6089
sV53722
p4598
I6090
sV2698
p4599
I2365
sV2695
p4600
I2359
sV2693
p4601
I2354
sV57054
p4602
I6546
sV14653
p4603
I667
sV14654
p4604
I668
sV14657
p4605
I669
sV54988
p4606
I6264
sV54112
p4607
I6148
sV16754
p4608
I946
sV68298
p4609
I8129
sV49805
p4610
I5491
sV30407
p4611
I2773
sV36163
p4612
I3526
sV8805
p4613
I8461
sV17838
p4614
I1094
sV62099
p4615
I7252
sV62094
p4616
I7250
sV62095
p4617
I7251
sV62093
p4618
I7249
sV67118
p4619
I7980
sV29808
p4620
I2710
sV44434
p4621
I4706
sV29778
p4622
I2709
sV29776
p4623
I2708
sV29772
p4624
I2707
sV10669
p4625
I135
sV1141
p4626
I252
sV1147
p4627
I260
sV1149
p4628
I262
sV23514
p4629
I1861
sV768
p4630
I8299
sV23040
p4631
I1786
sV59553
p4632
I6882
sV27602
p4633
I2442
sV27603
p4634
I2443
sV27606
p4635
I2444
sV39582
p4636
I4025
sV39583
p4637
I4026
sV39584
p4638
I4027
sV39586
p4639
I4028
sV39588
p4640
I4029
sV31209
p4641
I2898
sV31204
p4642
I2897
sV29117
p4643
I2650
sV59216
p4644
I6843
sV12472
p4645
I398
sV12829
p4646
I440
sV15295
p4647
I752
sV8026
p4648
I8343
sV8025
p4649
I8342
sV7440
p4650
I8266
sV50406
p4651
I5579
sV26632
p4652
I2309
sV26630
p4653
I2308
sV50403
p4654
I5578
sV7449
p4655
I8267
sV66575
p4656
I7900
sV55322
p4657
I6301
sV22643
p4658
I1730
sV22644
p4659
I1731
sV50662
p4660
I5626
sV4284
p4661
I4508
sV60935
p4662
I7090
sV60934
p4663
I7089
sV60933
p4664
I7088
sV60932
p4665
I7087
sV60931
p4666
I7086
sV26554
p4667
I2297
sV28641
p4668
I2587
sV28642
p4669
I2588
sV6402
p4670
I7513
sV28649
p4671
I2589
sV24774
p4672
I2056
sV22026
p4673
I1641
sV22021
p4674
I1640
sV67289
p4675
I8006
sV65213
p4676
I7693
sV65215
p4677
I7694
sV61222
p4678
I7133
sV383
p4679
I3813
sV388
p4680
I3877
sV62380
p4681
I7279
sV13664
p4682
I550
sV5873
p4683
I6764
sV55636
p4684
I6336
sV32254
p4685
I3039
sV16016
p4686
I840
sV32259
p4687
I3040
sV55639
p4688
I6337
sV56677
p4689
I6499
sV56855
p4690
I6523
sV17634
p4691
I1067
sV3750
p4692
I3699
sV3753
p4693
I3705
sV56679
p4694
I6500
sV3754
p4695
I3708
sV3757
p4696
I3709
sV4632
p4697
I4968
sV2194
p4698
I1622
sV13527
p4699
I537
sV2198
p4700
I1627
sV60246
p4701
I6989
sV57673
p4702
I6633
sV11742
p4703
I297
sV11749
p4704
I298
sV57678
p4705
I6634
sV1301
p4706
I468
sV63912
p4707
I7498
sV51138
p4708
I5697
sV54042
p4709
I6133
sV20892
p4710
I1476
sV20894
p4711
I1477
sV20895
p4712
I1478
sV52116
p4713
I5858
sV60068
p4714
I6959
sV60799
p4715
I7062
sV60061
p4716
I6958
sV165
p4717
I902
sV13292
p4718
I504
sV64031
p4719
I7515
sV60797
p4720
I7061
sV64037
p4721
I7519
sV64034
p4722
I7517
sV64035
p4723
I7518
sV13651
p4724
I548
sV4763
p4725
I5194
sV42499
p4726
I4467
sV49149
p4727
I5394
sV42329
p4728
I4434
sV42326
p4729
I4433
sV46665
p4730
I5028
sV42497
p4731
I4466
sV46663
p4732
I5027
sV42323
p4733
I4431
sV42493
p4734
I4465
sV49642
p4735
I5469
sV45869
p4736
I4925
sV2737
p4737
I2430
sV45648
p4738
I4896
sV45649
p4739
I4897
sV45319
p4740
I4844
sV41362
p4741
I4303
sV20092
p4742
I1361
sV45863
p4743
I4924
sV45643
p4744
I4895
sV57096
p4745
I6555
sV54576
p4746
I6203
sV9184
p4747
I8512
sV57092
p4748
I6554
sV57091
p4749
I6553
sV8224
p4750
I8376
sV8225
p4751
I8377
sV57052
p4752
I6545
sV16907
p4753
I971
sV7201
p4754
I8228
sV16908
p4755
I972
sV6222
p4756
I7256
sV6223
p4757
I7258
sV12211
p4758
I346
sV57051
p4759
I6544
sV6227
p4760
I7265
sV12215
p4761
I348
sV12214
p4762
I347
sV53029
p4763
I5987
sV15843
p4764
I820
sV15845
p4765
I821
sV10509
p4766
I89
sV40897
p4767
I4223
sV40894
p4768
I4221
sV40895
p4769
I4222
sV10500
p4770
I88
sV40898
p4771
I4224
sV29342
p4772
I2674
sV21411
p4773
I1547
sV37372
p4774
I3683
sV21419
p4775
I1549
sV24178
p4776
I1981
sV62790
p4777
I7357
sV10631
p4778
I123
sV8851
p4779
I8462
sV806
p4780
I8350
sV805
p4781
I8349
sV8854
p4782
I8463
sV59949
p4783
I6943
sV67569
p4784
I8033
sV59941
p4785
I6941
sV59946
p4786
I6942
sV58851
p4787
I6786
sV40098
p4788
I4098
sV40092
p4789
I4097
sV26827
p4790
I2344
sV5277
p4791
I5948
sV37199
p4792
I3657
sV65045
p4793
I7660
sV15506
p4794
I783
sV37191
p4795
I3656
sV1778
p4796
I1083
sV54556
p4797
I6196
sV41143
p4798
I4268
sV54557
p4799
I6197
sV40231
p4800
I4117
sV19740
p4801
I1319
sV24544
p4802
I2025
sV28348
p4803
I2556
sV1552
p4804
I789
sV3038
p4805
I2771
sV28439
p4806
I2567
sV1559
p4807
I791
sV3035
p4808
I2764
sV11101
p4809
I213
sV11106
p4810
I215
sV11105
p4811
I214
sV8703
p4812
I8450
sV8702
p4813
I8449
sV30614
p4814
I2816
sV16026
p4815
I841
sV8705
p4816
I8451
sV30610
p4817
I2815
sV8709
p4818
I8452
sV19031
p4819
I1237
sV50878
p4820
I5659
sV16753
p4821
I945
sV35045
p4822
I3406
sV35044
p4823
I3405
sV35040
p4824
I3403
sV35042
p4825
I3404
sV60646
p4826
I7041
sV5601
p4827
I6399
sV9323
p4828
I8539
sV38374
p4829
I3828
sV38375
p4830
I3829
sV32731
p4831
I3119
sV55133
p4832
I6275
sV33072
p4833
I3158
sV23704
p4834
I1900
sV23706
p4835
I1901
sV23701
p4836
I1899
sV23700
p4837
I1898
sV15334
p4838
I756
sV12457
p4839
I392
sV12459
p4840
I394
sV15338
p4841
I757
sV22252
p4842
I1676
sV22253
p4843
I1677
sV25709
p4844
I2202
sV25702
p4845
I2201
sV55792
p4846
I6354
sV55797
p4847
I6355
sV55798
p4848
I6356
sV1165
p4849
I282
sV6769
p4850
I8046
sV9977
p4851
I8633
sV39021
p4852
I3918
sV39020
p4853
I3917
sV56444
p4854
I6465
sV56442
p4855
I6464
sV56440
p4856
I6463
sV57249
p4857
I6570
sV16730
p4858
I943
sV16733
p4859
I944
sV57246
p4860
I6569
sV55869
p4861
I6374
sV65687
p4862
I7774
sV51839
p4863
I5817
sV27743
p4864
I2461
sV51833
p4865
I5816
sV51831
p4866
I5815
sV19906
p4867
I1335
sV32067
p4868
I3021
sV19904
p4869
I1334
sV16225
p4870
I860
sV54079
p4871
I6141
sV64624
p4872
I7599
sV64620
p4873
I7598
sV21624
p4874
I1582
sV21625
p4875
I1583
sV49553
p4876
I5460
sV49086
p4877
I5381
sV45417
p4878
I4858
sV45419
p4879
I4859
sV43156
p4880
I4557
sV43150
p4881
I4556
sV2508
p4882
I2098
sV64951
p4883
I7648
sV26053
p4884
I2242
sV64953
p4885
I7649
sV64485
p4886
I7579
sV46850
p4887
I5054
sV46507
p4888
I4997
sV46852
p4889
I5055
sV49333
p4890
I5427
sV46854
p4891
I5056
sV46501
p4892
I4996
sV46859
p4893
I5058
sV46509
p4894
I4998
sV17175
p4895
I1012
sV17174
p4896
I1011
sV17177
p4897
I1013
sV10772
p4898
I146
sV10773
p4899
I147
sV9517
p4900
I8559
sV53746
p4901
I6095
sV36768
p4902
I3598
sV9513
p4903
I8558
sV36767
p4904
I3597
sV53749
p4905
I6097
sV61608
p4906
I7192
sV14851
p4907
I690
sV54218
p4908
I6159
sV18885
p4909
I1223
sV18550
p4910
I1192
sV38619
p4911
I3858
sV62306
p4912
I7268
sV38615
p4913
I3857
sV38614
p4914
I3856
sV62302
p4915
I7267
sV21747
p4916
I1598
sV30420
p4917
I2778
sV30424
p4918
I2779
sV48413
p4919
I5293
sV36109
p4920
I3517
sV23171
p4921
I1813
sV36103
p4922
I3515
sV36104
p4923
I3516
sV18778
p4924
I1214
sV18779
p4925
I1215
sV58188
p4926
I6685
sV59797
p4927
I6908
sV20289
p4928
I1392
sV59790
p4929
I6907
sV3203
p4930
I3018
sV41550
p4931
I4343
sV23178
p4932
I1818
sV5187
p4933
I5825
sV29754
p4934
I2701
sV67173
p4935
I7991
sV29756
p4936
I2702
sV67171
p4937
I7990
sV29750
p4938
I2700
sV67174
p4939
I7992
sV10198
p4940
I35
sV40938
p4941
I4233
sV40937
p4942
I4232
sV40936
p4943
I4231
sV1121
p4944
I230
sV1126
p4945
I240
sV1127
p4946
I245
sV15108
p4947
I732
sV15106
p4948
I731
sV15100
p4949
I730
sV29134
p4950
I2654
sV34505
p4951
I3329
sV12590
p4952
I415
sV12591
p4953
I416
sV8511
p4954
I8419
sV48095
p4955
I5263
sV67790
p4956
I8058
sV12841
p4957
I442
sV26619
p4958
I2306
sV31486
p4959
I2936
sV31488
p4960
I2937
sV26610
p4961
I2305
sV23064
p4962
I1790
sV28086
p4963
I2512
sV47226
p4964
I5115
sV28083
p4965
I2511
sV16685
p4966
I935
sV47228
p4967
I5116
sV23069
p4968
I1792
sV22621
p4969
I1726
sV22623
p4970
I1728
sV22622
p4971
I1727
sV61024
p4972
I7105
sV61023
p4973
I7104
sV61020
p4974
I7103
sV26530
p4975
I2291
sV26536
p4976
I2292
sV52820
p4977
I5952
sV52827
p4978
I5953
sV50688
p4979
I5633
sV50684
p4980
I5631
sV50685
p4981
I5632
sV50682
p4982
I5630
sV54076
p4983
I6140
sV554
p4984
I6303
sV28882
p4985
I2622
sV28881
p4986
I2621
sV28880
p4987
I2620
sV61247
p4988
I7137
sV58530
p4989
I6735
sV4776
p4990
I5210
sV4770
p4991
I5201
sV4771
p4992
I5203
sV31959
p4993
I3004
sV13648
p4994
I547
sV51482
p4995
I5767
sV54375
p4996
I6185
sV19028
p4997
I1235
sV55655
p4998
I6338
sV32905
p4999
I3141
sV5811
p5000
I6673
sV16035
p5001
I844
sV51336
p5002
I5741
sV5814
p5003
I6679
sV32271
p5004
I3044
sV51332
p5005
I5739
sV56878
p5006
I6526
sV56305
p5007
I6449
sV56300
p5008
I6448
sV52351
p5009
I5892
sV60268
p5010
I6991
sV25397
p5011
I2158
sV23936
p5012
I1941
sV23934
p5013
I1939
sV23935
p5014
I1940
sV57656
p5015
I6632
sV23939
p5016
I1942
sV27226
p5017
I2409
sV27225
p5018
I2408
sV27222
p5019
I2407
sV65232
p5020
I7698
sV65943
p5021
I7819
sV27221
p5022
I2406
sV51152
p5023
I5701
sV51157
p5024
I5702
sV7422
p5025
I8263
sV64011
p5026
I7512
sV60045
p5027
I6956
sV60043
p5028
I6955
sV20878
p5029
I1473
sV20877
p5030
I1472
sV20874
p5031
I1471
sV25570
p5032
I2183
sV42304
p5033
I4429
sV16696
p5034
I939
sV16695
p5035
I938
sV3342
p5036
I3203
sV68597
p5037
I8175
sV2717
p5038
I2402
sV2714
p5039
I2398
sV53088
p5040
I5999
sV9169
p5041
I8508
sV9167
p5042
I8507
sV10346
p5043
I63
sV39810
p5044
I4057
sV39811
p5045
I4058
sV42162
p5046
I4409
sV18636
p5047
I1199
sV63793
p5048
I7481
sV63791
p5049
I7480
sV54086
p5050
I6143
sV54087
p5051
I6144
sV52680
p5052
I5928
sV52681
p5053
I5929
sV12271
p5054
I364
sV12272
p5055
I365
sV12277
p5056
I366
sV10525
p5057
I96
sV10524
p5058
I95
sV10523
p5059
I94
sV36593
p5060
I3580
sV10529
p5061
I98
sV10528
p5062
I97
sV63240
p5063
I7408
sV63242
p5064
I7409
sV63535
p5065
I7452
sV9701
p5066
I8591
sV9703
p5067
I8592
sV9705
p5068
I8593
sV9706
p5069
I8594
sV24119
p5070
I1972
sV34203
p5071
I3293
sV8875
p5072
I8469
sV37359
p5073
I3677
sV8876
p5074
I8470
sV8878
p5075
I8471
sV37420
p5076
I3694
sV21477
p5077
I1555
sV41303
p5078
I4292
sV41302
p5079
I4291
sV41305
p5080
I4293
sV48212
p5081
I5274
sV13314
p5082
I505
sV41308
p5083
I4294
sV45339
p5084
I4849
sV823
p5085
I8379
sV44574
p5086
I4729
sV44577
p5087
I4730
sV3097
p5088
I2858
sV26847
p5089
I2345
sV44572
p5090
I4728
sV67091
p5091
I7976
sV67092
p5092
I7977
sV6608
p5093
I7827
sV64394
p5094
I7566
sV68317
p5095
I8135
sV68315
p5096
I8134
sV49743
p5097
I5485
sV12497
p5098
I403
sV68319
p5099
I8136
sV15826
p5100
I819
sV56561
p5101
I6478
sV18342
p5102
I1166
sV28410
p5103
I2563
sV24561
p5104
I2027
sV18348
p5105
I1167
sV24566
p5106
I2028
sV33949
p5107
I3253
sV3012
p5108
I2744
sV3011
p5109
I2743
sV17970
p5110
I1121
sV3015
p5111
I2745
sV52149
p5112
I5860
sV30367
p5113
I2768
sV8722
p5114
I8453
sV30363
p5115
I2767
sV30361
p5116
I2766
sV4189
p5117
I4378
sV66945
p5118
I7957
sV66940
p5119
I7955
sV66941
p5120
I7956
sV35063
p5121
I3410
sV13872
p5122
I578
sV35060
p5123
I3409
sV13874
p5124
I579
sV13875
p5125
I580
sV4186
p5126
I4377
sV5660
p5127
I6487
sV5665
p5128
I6495
sV34194
p5129
I3291
sV34191
p5130
I3290
sV34198
p5131
I3292
sV67327
p5132
I8012
sV67323
p5133
I8011
sV58792
p5134
I6774
sV58972
p5135
I6805
sV23723
p5136
I1904
sV47075
p5137
I5101
sV47074
p5138
I5100
sV23236
p5139
I1825
sV15313
p5140
I755
sV15312
p5141
I754
sV48868
p5142
I5346
sV30946
p5143
I2855
sV16
p5144
I838
sV12478
p5145
I399
sV27036
p5146
I2377
sV27034
p5147
I2376
sV3904
p5148
I3923
sV3905
p5149
I3925
sV3906
p5150
I3927
sV6741
p5151
I8021
sV6742
p5152
I8023
sV32597
p5153
I3096
sV32595
p5154
I3095
sV35247
p5155
I3443
sV35244
p5156
I3442
sV50149
p5157
I5539
sV39044
p5158
I3924
sV55515
p5159
I6320
sV19921
p5160
I1337
sV55517
p5161
I6321
sV55511
p5162
I6319
sV16757
p5163
I947
sV16206
p5164
I855
sV19927
p5165
I1339
sV8888
p5166
I8475
sV56798
p5167
I6516
sV43822
p5168
I4642
sV43791
p5169
I4634
sV43826
p5170
I4643
sV25764
p5171
I2212
sV43796
p5172
I4635
sV43797
p5173
I4636
sV43798
p5174
I4637
sV8887
p5175
I8474
sV25027
p5176
I2090
sV65553
p5177
I7749
sV2525
p5178
I2125
sV64971
p5179
I7652
sV43171
p5180
I4559
sV41317
p5181
I4295
sV5065
p5182
I5619
sV5064
p5183
I5614
sV5063
p5184
I5612
sV58028
p5185
I6661
sV58029
p5186
I6662
sV68128
p5187
I8106
sV17150
p5188
I1007
sV17409
p5189
I1035
sV17408
p5190
I1034
sV17405
p5191
I1033
sV68125
p5192
I8105
sV13318
p5193
I507
sV4404
p5194
I4672
sV4405
p5195
I4673
sV13317
p5196
I506
sV4400
p5197
I4666
sV25188
p5198
I2118
sV60453
p5199
I7019
sV9570
p5200
I8571
sV9574
p5201
I8572
sV36290
p5202
I3544
sV924
p5203
I8527
sV10756
p5204
I145
sV5392
p5205
I6119
sV5390
p5206
I6115
sV14831
p5207
I686
sV5399
p5208
I6127
sV14832
p5209
I687
sV33715
p5210
I3221
sV48666
p5211
I5315
sV20111
p5212
I1364
sV64208
p5213
I7547
sV20113
p5214
I1365
sV67080
p5215
I7975
sV41538
p5216
I4340
sV48002
p5217
I5251
sV27855
p5218
I2476
sV48004
p5219
I5252
sV41534
p5220
I4338
sV29732
p5221
I2699
sV39602
p5222
I4033
sV39601
p5223
I4032
sV39600
p5224
I4031
sV39607
p5225
I4035
sV39606
p5226
I4034
sV9391
p5227
I8544
sV9390
p5228
I8543
sV67150
p5229
I7984
sV39608
p5230
I4036
sV67157
p5231
I7985
sV6578
p5232
I7783
sV34298
p5233
I3309
sV33246
p5234
I3185
sV42388
p5235
I4443
sV59513
p5236
I6878
sV59512
p5237
I6877
sV39548
p5238
I4023
sV27587
p5239
I2441
sV26981
p5240
I2366
sV41537
p5241
I4339
sV37653
p5242
I3715
sV37659
p5243
I3716
sV34071
p5244
I3270
sV12863
p5245
I445
sV12867
p5246
I446
sV12869
p5247
I447
sV9395
p5248
I8545
sV40666
p5249
I4192
sV40663
p5250
I4191
sV28746
p5251
I2605
sV50449
p5252
I5587
sV56384
p5253
I6455
sV26673
p5254
I2322
sV2891
p5255
I2624
sV50445
p5256
I5586
sV2893
p5257
I2625
sV50331
p5258
I5569
sV23000
p5259
I1778
sV47244
p5260
I5122
sV1101
p5261
I190
sV66201
p5262
I7848
sV47249
p5263
I5123
sV66207
p5264
I7849
sV22609
p5265
I1724
sV22605
p5266
I1723
sV22353
p5267
I1692
sV9398
p5268
I8546
sV26511
p5269
I2290
sV25241
p5270
I2123
sV8606
p5271
I8438
sV43361
p5272
I4578
sV4798
p5273
I5249
sV4794
p5274
I5241
sV4795
p5275
I5246
sV35651
p5276
I3476
sV4793
p5277
I5238
sV5833
p5278
I6712
sV5830
p5279
I6705
sV5831
p5280
I6707
sV65031
p5281
I7658
sV61005
p5282
I7100
sV32928
p5283
I3145
sV61000
p5284
I7099
sV19003
p5285
I1233
sV19005
p5286
I1234
sV32924
p5287
I3144
sV56639
p5288
I6493
sV64787
p5289
I7620
sV56320
p5290
I6451
sV45736
p5291
I4909
sV25371
p5292
I2154
sV51176
p5293
I5706
sV23918
p5294
I1936
sV23919
p5295
I1937
sV51427
p5296
I5761
sV65963
p5297
I7823
sV61262
p5298
I7138
sV65788
p5299
I7785
sV65786
p5300
I7784
sV43583
p5301
I4605
sV43588
p5302
I4606
sV30589
p5303
I2810
sV25518
p5304
I2176
sV25516
p5305
I2175
sV25515
p5306
I2174
sV28461
p5307
I2571
sV42365
p5308
I4439
sV21988
p5309
I1628
sV6900
p5310
I8195
sV2600
p5311
I2235
sV52373
p5312
I5894
sV39835
p5313
I4061
sV39837
p5314
I4062
sV4892
p5315
I5361
sV4896
p5316
I5364
sV4895
p5317
I5363
sV4894
p5318
I5362
sV16415
p5319
I887
sV16414
p5320
I886
sV16411
p5321
I884
sV16413
p5322
I885
sV7974
p5323
I8336
sV9494
p5324
I8554
sV21189
p5325
I1521
sV7523
p5326
I8281
sV42186
p5327
I4410
sV42187
p5328
I4411
sV21187
p5329
I1520
sV12258
p5330
I359
sV52151
p5331
I5861
sV20853
p5332
I1468
sV20859
p5333
I1469
sV21326
p5334
I1539
sV46950
p5335
I5080
sV63516
p5336
I7448
sV63511
p5337
I7447
sV3466
p5338
I3349
sV3465
p5339
I3348
sV31307
p5340
I2911
sV3469
p5341
I3357
sV39174
p5342
I3946
sV41981
p5343
I4397
sV35339
p5344
I3450
sV39176
p5345
I3947
sV41322
p5346
I4298
sV41320
p5347
I4297
sV44551
p5348
I4724
sV44550
p5349
I4723
sV44556
p5350
I4726
sV44555
p5351
I4725
sV55936
p5352
I6383
sV44005
p5353
I4668
sV44004
p5354
I4667
sV44007
p5355
I4669
sV40053
p5356
I4091
sV26861
p5357
I2348
sV20338
p5358
I1393
sV55934
p5359
I6382
sV57785
p5360
I6644
sV38012
p5361
I3770
sV1737
p5362
I1027
sV41188
p5363
I4275
sV41180
p5364
I4274
sV65688
p5365
I7775
sV40272
p5366
I4119
sV40274
p5367
I4120
sV40275
p5368
I4121
sV28473
p5369
I2572
sV1597
p5370
I835
sV33969
p5371
I3256
sV1593
p5372
I830
sV28475
p5373
I2573
sV28479
p5374
I2574
sV54000
p5375
I6129
sV1598
p5376
I836
sV14312
p5377
I618
sV27447
p5378
I2433
sV56768
p5379
I6511
sV6499
p5380
I7654
sV17950
p5381
I1115
sV17956
p5382
I1116
sV38001
p5383
I3768
sV67524
p5384
I8032
sV59986
p5385
I6945
sV31529
p5386
I2945
sV31525
p5387
I2944
sV5649
p5388
I6472
sV47588
p5389
I5183
sV66932
p5390
I7952
sV47580
p5391
I5181
sV47582
p5392
I5182
sV40584
p5393
I4181
sV66939
p5394
I7954
sV40580
p5395
I4180
sV47725
p5396
I5207
sV23743
p5397
I1906
sV28292
p5398
I2550
sV23744
p5399
I1907
sV47059
p5400
I5097
sV48800
p5401
I5339
sV48804
p5402
I5340
sV487
p5403
I5320
sV486
p5404
I5307
sV51783
p5405
I5808
sV51784
p5406
I5809
sV480
p5407
I5250
sV12418
p5408
I386
sV59238
p5409
I6846
sV59239
p5410
I6847
sV12411
p5411
I385
sV6463
p5412
I7600
sV61234
p5413
I7135
sV11187
p5414
I224
sV6466
p5415
I7606
sV6467
p5416
I7607
sV35001
p5417
I3395
sV50786
p5418
I5645
sV31037
p5419
I2872
sV50835
p5420
I5655
sV50839
p5421
I5656
sV31038
p5422
I2873
sV50789
p5423
I5646
sV3922
p5424
I3962
sV19491
p5425
I1294
sV3920
p5426
I3958
sV3921
p5427
I3961
sV3926
p5428
I3972
sV3925
p5429
I3970
sV3928
p5430
I3978
sV8307
p5431
I8392
sV8306
p5432
I8391
sV8301
p5433
I8390
sV39069
p5434
I3928
sV9939
p5435
I8626
sV9930
p5436
I8623
sV9936
p5437
I8625
sV9935
p5438
I8624
sV32718
p5439
I3112
sV32719
p5440
I3113
sV32715
p5441
I3111
sV16775
p5442
I950
sV22165
p5443
I1659
sV22161
p5444
I1658
sV6091
p5445
I7082
sV6090
p5446
I7081
sV12067
p5447
I331
sV34803
p5448
I3371
sV43779
p5449
I4631
sV43776
p5450
I4630
sV43801
p5451
I4638
sV43803
p5452
I4639
sV21562
p5453
I1570
sV65570
p5454
I7752
sV21669
p5455
I1584
sV21561
p5456
I1569
sV49511
p5457
I5452
sV24834
p5458
I2066
sV46725
p5459
I5035
sV24832
p5460
I2065
sV49516
p5461
I5453
sV49517
p5462
I5454
sV50330
p5463
I5568
sV45010
p5464
I4799
sV11443
p5465
I256
sV11442
p5466
I255
sV57758
p5467
I6639
sV11445
p5468
I257
sV57206
p5469
I6567
sV3581
p5470
I3492
sV3582
p5471
I3493
sV46542
p5472
I5008
sV46541
p5473
I5007
sV58006
p5474
I6659
sV64195
p5475
I7546
sV64191
p5476
I7545
sV38829
p5477
I3884
sV38824
p5478
I3881
sV38825
p5479
I3882
sV38826
p5480
I3883
sV38821
p5481
I3879
sV38823
p5482
I3880
sV36722
p5483
I3595
sV36729
p5484
I3596
sV13337
p5485
I509
sV9559
p5486
I8567
sV44436
p5487
I4707
sV53926
p5488
I6121
sV53927
p5489
I6122
sV9557
p5490
I8566
sV53925
p5491
I6120
sV58918
p5492
I6796
sV58919
p5493
I6797
sV62346
p5494
I7273
sV62345
p5495
I7272
sV58914
p5496
I6795
sV20138
p5497
I1370
sV64226
p5498
I7552
sV64225
p5499
I7551
sV48391
p5500
I5288
sV64229
p5501
I7553
sV20130
p5502
I1368
sV20134
p5503
I1369
sV44765
p5504
I4759
sV44762
p5505
I4758
sV28282
p5506
I2546
sV46894
p5507
I5068
sV46895
p5508
I5069
sV46896
p5509
I5070
sV45015
p5510
I4800
sV27876
p5511
I2479
sV48024
p5512
I5254
sV48022
p5513
I5253
sV41518
p5514
I4334
sV41519
p5515
I4335
sV45018
p5516
I4801
sV41049
p5517
I4247
sV45739
p5518
I4910
sV64594
p5519
I7590
sV21954
p5520
I1624
sV29715
p5521
I2695
sV29717
p5522
I2696
sV54251
p5523
I6163
sV54253
p5524
I6164
sV54255
p5525
I6165
sV54259
p5526
I6166
sV59533
p5527
I6881
sV15144
p5528
I736
sV34276
p5529
I3307
sV39523
p5530
I4021
sV7172
p5531
I8220
sV48878
p5532
I5347
sV31735
p5533
I2966
sV31734
p5534
I2965
sV31733
p5535
I2964
sV31731
p5536
I2963
sV1696
p5537
I982
sV1695
p5538
I980
sV1693
p5539
I977
sV1691
p5540
I973
sV37892
p5541
I3750
sV37893
p5542
I3751
sV30025
p5543
I2737
sV30027
p5544
I2738
sV30022
p5545
I2736
sV26650
p5546
I2314
sV39299
p5547
I3979
sV26652
p5548
I2316
sV26654
p5549
I2317
sV26655
p5550
I2318
sV44947
p5551
I4789
sV44949
p5552
I4790
sV14764
p5553
I676
sV14767
p5554
I677
sV66262
p5555
I7860
sV14760
p5556
I674
sV14762
p5557
I675
sV59224
p5558
I6845
sV14768
p5559
I678
sV15304
p5560
I753
sV68502
p5561
I8165
sV68500
p5562
I8163
sV68501
p5563
I8164
sV28043
p5564
I2508
sV28042
p5565
I2507
sV23023
p5566
I1781
sV23024
p5567
I1782
sV28594
p5568
I2584
sV47911
p5569
I5235
sV13939
p5570
I585
sV13938
p5571
I584
sV31195
p5572
I2894
sV13937
p5573
I583
sV4223
p5574
I4414
sV20
p5575
I1346
sV5583
p5576
I6366
sV5581
p5577
I6361
sV24790
p5578
I2061
sV59653
p5579
I6887
sV38210
p5580
I3806
sV26860
p5581
I2347
sV44370
p5582
I4701
sV31998
p5583
I3014
sV46272
p5584
I4961
sV43348
p5585
I4575
sV35632
p5586
I3471
sV43346
p5587
I4574
sV35630
p5588
I3469
sV35631
p5589
I3470
sV51374
p5590
I5746
sV51376
p5591
I5747
sV23686
p5592
I1894
sV23687
p5593
I1895
sV23680
p5594
I1892
sV23682
p5595
I1893
sV65017
p5596
I7656
sV61069
p5597
I7107
sV65013
p5598
I7655
sV56915
p5599
I6529
sV25357
p5600
I2150
sV56916
p5601
I6530
sV60885
p5602
I7079
sV60227
p5603
I6988
sV49727
p5604
I5484
sV60221
p5605
I6987
sV25682
p5606
I2199
sV25684
p5607
I2200
sV3923
p5608
I3963
sV23972
p5609
I1952
sV23970
p5610
I1951
sV51191
p5611
I5712
sV23977
p5612
I1953
sV61289
p5613
I7140
sV8502
p5614
I8417
sV27263
p5615
I2412
sV27260
p5616
I2411
sV26220
p5617
I2258
sV60087
p5618
I6963
sV2285
p5619
I1757
sV60084
p5620
I6961
sV19684
p5621
I1307
sV32368
p5622
I3057
sV42341
p5623
I4436
sV42342
p5624
I4437
sV42431
p5625
I4449
sV52313
p5626
I5883
sV10907
p5627
I167
sV10906
p5628
I166
sV10901
p5629
I165
sV17307
p5630
I1025
sV17304
p5631
I1024
sV52315
p5632
I5885
sV4536
p5633
I4851
sV4825
p5634
I5276
sV10659
p5635
I131
sV10655
p5636
I129
sV10654
p5637
I128
sV10305
p5638
I60
sV10656
p5639
I130
sV10653
p5640
I127
sV7918
p5641
I8329
sV16435
p5642
I891
sV7912
p5643
I8328
sV6284
p5644
I7365
sV6287
p5645
I7366
sV183
p5646
I1164
sV26137
p5647
I2245
sV181
p5648
I1130
sV20834
p5649
I1465
sV189
p5650
I1224
sV53268
p5651
I6011
sV52030
p5652
I5848
sV46973
p5653
I5082
sV21301
p5654
I1536
sV46975
p5655
I5083
sV49254
p5656
I5419
sV63572
p5657
I7455
sV22968
p5658
I1774
sV3440
p5659
I3316
sV22961
p5660
I1773
sV5975
p5661
I6904
sV2754
p5662
I2439
sV2022
p5663
I1388
sV48251
p5664
I5277
sV48252
p5665
I5278
sV52038
p5666
I5851
sV2758
p5667
I2440
sV44029
p5668
I4671
sV7470
p5669
I8272
sV44022
p5670
I4670
sV44534
p5671
I4716
sV44537
p5672
I4717
sV58611
p5673
I6745
sV58613
p5674
I6746
sV53616
p5675
I6070
sV36494
p5676
I3568
sV13105
p5677
I479
sV13107
p5678
I480
sV14484
p5679
I646
sV37286
p5680
I3667
sV14480
p5681
I644
sV14481
p5682
I645
sV54567
p5683
I6201
sV14489
p5684
I647
sV38025
p5685
I3773
sV28451
p5686
I2570
sV39177
p5687
I3948
sV3050
p5688
I2796
sV3051
p5689
I2801
sV57506
p5690
I6613
sV27468
p5691
I2435
sV27460
p5692
I2434
sV45953
p5693
I4937
sV40077
p5694
I4093
sV55676
p5695
I6343
sV67507
p5696
I8031
sV40079
p5697
I4094
sV67053
p5698
I7974
sV67052
p5699
I7973
sV55850
p5700
I6370
sV58840
p5701
I6784
sV66901
p5702
I7948
sV66903
p5703
I7949
sV66904
p5704
I7950
sV66906
p5705
I7951
sV55505
p5706
I6318
sV9620
p5707
I8580
sV15681
p5708
I805
sV55857
p5709
I6371
sV29509
p5710
I2684
sV47703
p5711
I5202
sV66019
p5712
I7825
sV23766
p5713
I1913
sV23764
p5714
I1912
sV23763
p5715
I1911
sV66017
p5716
I7824
sV28900
p5717
I2623
sV15357
p5718
I761
sV12436
p5719
I388
sV30905
p5720
I2848
sV30904
p5721
I2847
sV12433
p5722
I387
sV34483
p5723
I3327
sV48829
p5724
I5342
sV34481
p5725
I3326
sV27074
p5726
I2384
sV27073
p5727
I2383
sV12439
p5728
I389
sV30908
p5729
I2849
sV31052
p5730
I2875
sV31502
p5731
I2940
sV31051
p5732
I2874
sV35026
p5733
I3400
sV35025
p5734
I3399
sV31059
p5735
I2876
sV35023
p5736
I3398
sV35022
p5737
I3397
sV35021
p5738
I3396
sV55739
p5739
I6350
sV32558
p5740
I3086
sV55735
p5741
I6348
sV21736
p5742
I1597
sV55737
p5743
I6349
sV6089
p5744
I7080
sV32881
p5745
I3140
sV19470
p5746
I1291
sV32551
p5747
I3085
sV8329
p5748
I8394
sV6701
p5749
I7965
sV34735
p5750
I3359
sV9910
p5751
I8616
sV9915
p5752
I8618
sV9914
p5753
I8617
sV39085
p5754
I3930
sV39087
p5755
I3932
sV39086
p5756
I3931
sV56424
p5757
I6458
sV56426
p5758
I6459
sV50109
p5759
I5534
sV35280
p5760
I3445
sV24478
p5761
I2020
sV55559
p5762
I6327
sV32773
p5763
I3125
sV55881
p5764
I6377
sV55555
p5765
I6326
sV13745
p5766
I562
sV13742
p5767
I561
sV43751
p5768
I4625
sV13740
p5769
I560
sV43753
p5770
I4627
sV26306
p5771
I2262
sV26304
p5772
I2261
sV43136
p5773
I4554
sV2560
p5774
I2187
sV65961
p5775
I7822
sV32081
p5776
I3022
sV32082
p5777
I3023
sV57772
p5778
I6641
sV11423
p5779
I254
sV44868
p5780
I4779
sV5029
p5781
I5558
sV52506
p5782
I5909
sV52050
p5783
I5854
sV52053
p5784
I5855
sV52058
p5785
I5857
sV52508
p5786
I5911
sV60411
p5787
I7010
sV13353
p5788
I512
sV60145
p5789
I6977
sV13355
p5790
I513
sV13357
p5791
I514
sV60141
p5792
I6976
sV38847
p5793
I3888
sV60148
p5794
I6978
sV965
p5795
I8583
sV962
p5796
I8579
sV53907
p5797
I6116
sV36255
p5798
I3540
sV53909
p5799
I6117
sV969
p5800
I8588
sV46703
p5801
I5033
sV49069
p5802
I5378
sV20153
p5803
I1372
sV20152
p5804
I1371
sV48624
p5805
I5311
sV20158
p5806
I1373
sV64244
p5807
I7554
sV44705
p5808
I4750
sV42889
p5809
I4514
sV42886
p5810
I4513
sV42880
p5811
I4512
sV45032
p5812
I4808
sV45031
p5813
I4807
sV24826
p5814
I2064
sV59883
p5815
I6929
sV23149
p5816
I1810
sV45034
p5817
I4809
sV27894
p5818
I2484
sV27897
p5819
I2486
sV27896
p5820
I2485
sV27891
p5821
I2481
sV27893
p5822
I2483
sV27892
p5823
I2482
sV39647
p5824
I4040
sV23147
p5825
I1809
sV29260
p5826
I2663
sV57445
p5827
I6601
sV39777
p5828
I4053
sV23145
p5829
I1808
sV39648
p5830
I4041
sV63142
p5831
I7393
sV28325
p5832
I2553
sV58192
p5833
I6687
sV58280
p5834
I6702
sV58281
p5835
I6703
sV33029
p5836
I3149
sV1539
p5837
I765
sV37079
p5838
I3644
sV37077
p5839
I3643
sV33755
p5840
I3227
sV18533
p5841
I1186
sV37072
p5842
I3642
sV54271
p5843
I6171
sV15168
p5844
I737
sV59089
p5845
I6817
sV30596
p5846
I2811
sV30597
p5847
I2812
sV59083
p5848
I6814
sV59081
p5849
I6813
sV7112
p5850
I8210
sV67026
p5851
I7968
sV39501
p5852
I4020
sV49939
p5853
I5505
sV37616
p5854
I3711
sV1673
p5855
I942
sV67264
p5856
I8001
sV67263
p5857
I8000
sV67268
p5858
I8002
sV67269
p5859
I8003
sV50372
p5860
I5575
sV50371
p5861
I5574
sV40625
p5862
I4185
sV47934
p5863
I5239
sV14742
p5864
I671
sV58424
p5865
I6721
sV58423
p5866
I6720
sV14745
p5867
I672
sV24263
p5868
I1994
sV24260
p5869
I1993
sV47939
p5870
I5240
sV45420
p5871
I4860
sV644
p5872
I7567
sV647
p5873
I7609
sV5569
p5874
I6345
sV5566
p5875
I6340
sV5567
p5876
I6342
sV34034
p5877
I3269
sV34033
p5878
I3268
sV31314
p5879
I2913
sV31316
p5880
I2914
sV31312
p5881
I2912
sV300
p5882
I2730
sV302
p5883
I2750
sV303
p5884
I2758
sV31319
p5885
I2915
sV305
p5886
I2795
sV11212
p5887
I231
sV11216
p5888
I232
sV46662
p5889
I5026
sV11219
p5890
I233
sV19047
p5891
I1240
sV19046
p5892
I1239
sV19045
p5893
I1238
sV51426
p5894
I5760
sV51351
p5895
I5743
sV27799
p5896
I2469
sV27793
p5897
I2467
sV27796
p5898
I2468
sV25330
p5899
I2146
sV25335
p5900
I2147
sV23954
p5901
I1947
sV23955
p5902
I1948
sV32408
p5903
I3059
sV65925
p5904
I7816
sV65292
p5905
I7707
sV65922
p5906
I7815
sV27246
p5907
I2410
sV62261
p5908
I7264
sV49820
p5909
I5493
sV12749
p5910
I437
sV10923
p5911
I169
sV17329
p5912
I1026
sV64740
p5913
I7617
sV10926
p5914
I171
sV10924
p5915
I170
sV52558
p5916
I5917
sV52333
p5917
I5888
sV52992
p5918
I5984
sV52993
p5919
I5985
sV7930
p5920
I8333
sV7932
p5921
I8334
sV57544
p5922
I6615
sV9107
p5923
I8502
sV57547
p5924
I6616
sV10677
p5925
I136
sV9451
p5926
I8549
sV53065
p5927
I5995
sV53064
p5928
I5994
sV16451
p5929
I893
sV21144
p5930
I1510
sV7060
p5931
I8206
sV21141
p5932
I1509
sV16986
p5933
I987
sV16985
p5934
I986
sV52194
p5935
I5868
sV52195
p5936
I5869
sV52191
p5937
I5866
sV52193
p5938
I5867
sV61950
p5939
I7232
sV28240
p5940
I2537
sV12295
p5941
I370
sV17410
p5942
I1036
sV20810
p5943
I1461
sV20813
p5944
I1462
sV20817
p5945
I1463
sV6266
p5946
I7322
sV63805
p5947
I7482
sV60428
p5948
I7014
sV46919
p5949
I5074
sV22948
p5950
I1772
sV37442
p5951
I3695
sV38470
p5952
I3843
sV3423
p5953
I3299
sV56948
p5954
I6531
sV17581
p5955
I1063
sV3424
p5956
I3301
sV2009
p5957
I1360
sV14176
p5958
I606
sV18498
p5959
I1185
sV61918
p5960
I7230
sV58633
p5961
I6748
sV54590
p5962
I6206
sV54591
p5963
I6207
sV11986
p5964
I323
sV60605
p5965
I7032
sV60604
p5966
I7031
sV10580
p5967
I116
sV53245
p5968
I6010
sV53241
p5969
I6009
sV18672
p5970
I1205
sV18671
p5971
I1204
sV33923
p5972
I3249
sV33252
p5973
I3186
sV33925
p5974
I3250
sV18675
p5975
I1206
sV14357
p5976
I626
sV54048
p5977
I6136
sV54049
p5978
I6137
sV18678
p5979
I1208
sV41494
p5980
I4333
sV62605
p5981
I7313
sV62604
p5982
I7312
sV17915
p5983
I1109
sV17913
p5984
I1108
sV17912
p5985
I1107
sV17911
p5986
I1106
sV34932
p5987
I3387
sV68400
p5988
I8149
sV34931
p5989
I3386
sV40012
p5990
I4083
sV44516
p5991
I4715
sV44515
p5992
I4714
sV40017
p5993
I4086
sV40014
p5994
I4084
sV40015
p5995
I4085
sV47897
p5996
I5231
sV47896
p5997
I5230
sV66382
p5998
I7867
sV47544
p5999
I5174
sV47899
p6000
I5232
sV47546
p6001
I5175
sV47541
p6002
I5171
sV47543
p6003
I5173
sV47542
p6004
I5172
sV12986
p6005
I465
sV12985
p6006
I464
sV12984
p6007
I463
sV12982
p6008
I462
sV12981
p6009
I461
sV67383
p6010
I8016
sV67386
p6011
I8017
sV67388
p6012
I8018
sV1338
p6013
I517
sV443
p6014
I4689
sV442
p6015
I4682
sV1337
p6016
I515
sV440
p6017
I4665
sV15402
p6018
I769
sV15406
p6019
I770
sV59276
p6020
I6854
sV59278
p6021
I6855
sV8125
p6022
I8360
sV15408
p6023
I771
sV8123
p6024
I8359
sV9837
p6025
I8609
sV8121
p6026
I8358
sV39
p6027
I3915
sV38
p6028
I3767
sV7703
p6029
I8302
sV7701
p6030
I8301
sV30
p6031
I2729
sV56687
p6032
I6502
sV31079
p6033
I2881
sV50749
p6034
I5644
sV50748
p6035
I5643
sV66652
p6036
I7918
sV31071
p6037
I2879
sV50295
p6038
I5559
sV31076
p6039
I2880
sV50296
p6040
I5560
sV61381
p6041
I7161
sV19183
p6042
I1263
sV19180
p6043
I1261
sV19181
p6044
I1262
sV66541
p6045
I7894
sV50243
p6046
I5551
sV67925
p6047
I8079
sV48674
p6048
I5317
sV67821
p6049
I8063
sV67757
p6050
I8054
sV61561
p6051
I7186
sV22430
p6052
I1696
sV26326
p6053
I2265
sV26322
p6054
I2264
sV22123
p6055
I1653
sV22121
p6056
I1652
sV26328
p6057
I2266
sV43733
p6058
I4618
sV43731
p6059
I4617
sV43736
p6060
I4619
sV13769
p6061
I567
sV4074
p6062
I4206
sV43738
p6063
I4620
sV4071
p6064
I4202
sV4070
p6065
I4199
sV13762
p6066
I566
sV3966
p6067
I4044
sV32575
p6068
I3090
sV32576
p6069
I3091
sV3965
p6070
I4042
sV32570
p6071
I3089
sV5799
p6072
I6657
sV3969
p6073
I4046
sV3637
p6074
I3553
sV3630
p6075
I3546
sV11406
p6076
I250
sV11403
p6077
I249
sV11409
p6078
I251
sV19982
p6079
I1342
sV19983
p6080
I1343
sV55575
p6081
I6331
sV55574
p6082
I6330
sV65734
p6083
I7782
sV19984
p6084
I1344
sV19237
p6085
I1267
sV32759
p6086
I3122
sV45605
p6087
I4892
sV38865
p6088
I3891
sV38867
p6089
I3892
sV56008
p6090
I6398
sV4462
p6091
I4739
sV4463
p6092
I4741
sV13370
p6093
I516
sV36279
p6094
I3543
sV36278
p6095
I3542
sV942
p6096
I8547
sV21800
p6097
I1608
sV24870
p6098
I2071
sV49001
p6099
I5369
sV42068
p6100
I4406
sV46764
p6101
I5041
sV21807
p6102
I1609
sV42067
p6103
I4405
sV20177
p6104
I1382
sV20176
p6105
I1381
sV48605
p6106
I5309
sV48604
p6107
I5308
sV45230
p6108
I4838
sV45233
p6109
I4839
sV36180
p6110
I3527
sV44721
p6111
I4751
sV44723
p6112
I4752
sV9983
p6113
I8634
sV6326
p6114
I7411
sV12175
p6115
I342
sV6322
p6116
I7405
sV46585
p6117
I5016
sV59717
p6118
I6901
sV59715
p6119
I6900
sV59861
p6120
I6925
sV41007
p6121
I4240
sV59710
p6122
I6899
sV29201
p6123
I2657
sV29205
p6124
I2658
sV10445
p6125
I79
sV10447
p6126
I80
sV10112
p6127
I25
sV10442
p6128
I78
sV10111
p6129
I24
sV21776
p6130
I1604
sV37050
p6131
I3637
sV63120
p6132
I7391
sV37058
p6133
I3638
sV37059
p6134
I3639
sV8978
p6135
I8486
sV62835
p6136
I7363
sV62837
p6137
I7364
sV62832
p6138
I7362
sV8970
p6139
I8483
sV8973
p6140
I8484
sV8974
p6141
I8485
sV8527
p6142
I8421
sV14352
p6143
I623
sV7139
p6144
I8217
sV26929
p6145
I2353
sV7133
p6146
I8214
sV6562
p6147
I7760
sV26922
p6148
I2352
sV7136
p6149
I8216
sV60086
p6150
I6962
sV56311
p6151
I6450
sV38164
p6152
I3802
sV49910
p6153
I5503
sV21790
p6154
I1605
sV1653
p6155
I907
sV21792
p6156
I1606
sV582
p6157
I6691
sV44983
p6158
I4793
sV67714
p6159
I8051
sV67247
p6160
I7998
sV40359
p6161
I4141
sV67713
p6162
I8050
sV67243
p6163
I7997
sV24201
p6164
I1988
sV42491
p6165
I4464
sV2834
p6166
I2555
sV14355
p6167
I624
sV28554
p6168
I2582
sV28553
p6169
I2581
sV14726
p6170
I670
sV40908
p6171
I4228
sV30206
p6172
I2753
sV30200
p6173
I2751
sV34236
p6174
I3300
sV68542
p6175
I8168
sV38785
p6176
I3875
sV38787
p6177
I3876
sV3827
p6178
I3812
sV18113
p6179
I1132
sV18119
p6180
I1133
sV38256
p6181
I3808
sV38253
p6182
I3807
sV5544
p6183
I6304
sV5545
p6184
I6308
sV8599
p6185
I8433
sV30068
p6186
I2740
sV8595
p6187
I8432
sV8593
p6188
I8431
sV8591
p6189
I8430
sV35363
p6190
I3451
sV47374
p6191
I5137
sV11231
p6192
I236
sV11232
p6193
I237
sV11233
p6194
I238
sV11237
p6195
I239
sV51408
p6196
I5755
sV48984
p6197
I5367
sV4918
p6198
I5406
sV51406
p6199
I5754
sV51405
p6200
I5753
sV55387
p6201
I6302
sV22333
p6202
I1689
sV4914
p6203
I5392
sV25919
p6204
I2227
sV25318
p6205
I2141
sV4660
p6206
I5018
sV25314
p6207
I2140
sV4661
p6208
I5019
sV23420
p6209
I1844
sV23422
p6210
I1845
sV39127
p6211
I3937
sV39125
p6212
I3936
sV42472
p6213
I4458
sV42473
p6214
I4459
sV16619
p6215
I923
sV42471
p6216
I4457
sV55964
p6217
I6390
sV16612
p6218
I922
sV16611
p6219
I921
sV16610
p6220
I920
sV32324
p6221
I3053
sV55962
p6222
I6388
sV32326
p6223
I3054
sV22592
p6224
I1721
sV1594
p6225
I831
sV10948
p6226
I174
sV64720
p6227
I7615
sV64725
p6228
I7616
sV10943
p6229
I172
sV10947
p6230
I173
sV1590
p6231
I827
sV16477
p6232
I898
sV16476
p6233
I897
sV9470
p6234
I8552
sV61977
p6235
I7233
sV24990
p6236
I2087
sV24993
p6237
I2088
sV21166
p6238
I1515
sV21164
p6239
I1514
sV54001
p6240
I6130
sV26178
p6241
I2251
sV43076
p6242
I4545
sV26176
p6243
I2250
sV49216
p6244
I5415
sV46247
p6245
I4952
sV46933
p6246
I5079
sV46932
p6247
I5078
sV24197
p6248
I1984
sV24196
p6249
I1983
sV24199
p6250
I1986
sV24198
p6251
I1985
sV9208
p6252
I8515
sV22922
p6253
I1765
sV22923
p6254
I1766
sV22920
p6255
I1764
sV38419
p6256
I3832
sV4877
p6257
I5332
sV4871
p6258
I5321
sV41928
p6259
I4385
sV4872
p6260
I5322
sV32817
p6261
I3131
sV4878
p6262
I5336
sV2799
p6263
I2504
sV51045
p6264
I5681
sV2061
p6265
I1431
sV2790
p6266
I2488
sV39165
p6267
I3944
sV13496
p6268
I536
sV2794
p6269
I2499
sV2795
p6270
I2501
sV58651
p6271
I6750
sV58650
p6272
I6749
sV58653
p6273
I6751
sV14111
p6274
I603
sV14116
p6275
I604
sV52714
p6276
I5937
sV17702
p6277
I1079
sV17700
p6278
I1078
sV52711
p6279
I5936
sV62446
p6280
I7289
sV52719
p6281
I5938
sV13140
p6282
I486
sV13142
p6283
I487
sV20692
p6284
I1442
sV20693
p6285
I1443
sV20695
p6286
I1444
sV52677
p6287
I5927
sV61345
p6288
I7156
sV37939
p6289
I3754
sV54714
p6290
I6229
sV37932
p6291
I3752
sV33277
p6292
I3193
sV54710
p6293
I6226
sV37936
p6294
I3753
sV54712
p6295
I6228
sV33273
p6296
I3192
sV20340
p6297
I1394
sV58320
p6298
I6710
sV20434
p6299
I1406
sV20343
p6300
I1395
sV53801
p6301
I6106
sV62661
p6302
I7324
sV62660
p6303
I7323
sV62663
p6304
I7326
sV55259
p6305
I6293
sV51030
p6306
I5679
sV67012
p6307
I7966
sV67014
p6308
I7967
sV63274
p6309
I7414
sV33137
p6310
I3170
sV44068
p6311
I4676
sV44066
p6312
I4675
sV44065
p6313
I4674
sV47569
p6314
I5179
sV47566
p6315
I5178
sV30037
p6316
I2739
sV12961
p6317
I460
sV29017
p6318
I2642
sV40290
p6319
I4124
sV40291
p6320
I4125
sV40292
p6321
I4126
sV29546
p6322
I2687
sV65185
p6323
I7683
sV40298
p6324
I4127
sV29018
p6325
I2643
sV727
p6326
I8240
sV464
p6327
I4980
sV8109
p6328
I8355
sV15469
p6329
I777
sV15468
p6330
I776
sV6489
p6331
I7637
sV15393
p6332
I767
sV15460
p6333
I774
sV15391
p6334
I766
sV59295
p6335
I6857
sV15464
p6336
I775
sV26771
p6337
I2336
sV39332
p6338
I3988
sV39331
p6339
I3987
sV40674
p6340
I4193
sV66638
p6341
I7913
sV66639
p6342
I7914
sV8360
p6343
I8401
sV8365
p6344
I8402
sV8366
p6345
I8403
sV61364
p6346
I7160
sV64859
p6347
I7632
sV67905
p6348
I8078
sV25603
p6349
I2188
sV10289
p6350
I56
sV47747
p6351
I5208
sV3188
p6352
I2987
sV3189
p6353
I2989
sV55939
p6354
I6385
sV61509
p6355
I7178
sV22107
p6356
I1649
sV35794
p6357
I3490
sV35798
p6358
I3491
sV43718
p6359
I4613
sV21570
p6360
I1573
sV13702
p6361
I552
sV13700
p6362
I551
sV43242
p6363
I4566
sV13704
p6364
I553
sV43717
p6365
I4612
sV51090
p6366
I5687
sV64950
p6367
I7647
sV51092
p6368
I5688
sV19436
p6369
I1287
sV3989
p6370
I4066
sV3984
p6371
I4063
sV51099
p6372
I5689
sV19439
p6373
I1288
sV3982
p6374
I4059
sV3983
p6375
I4060
sV52274
p6376
I5879
sV52276
p6377
I5880
sV52271
p6378
I5878
sV6531
p6379
I7713
sV35427
p6380
I3457
sV60368
p6381
I7004
sV35424
p6382
I3456
sV57739
p6383
I6638
sV57738
p6384
I6637
sV65624
p6385
I7763
sV65626
p6386
I7764
sV65627
p6387
I7765
sV51679
p6388
I5794
sV65622
p6389
I7762
sV64107
p6390
I7529
sV51890
p6391
I5828
sV51891
p6392
I5829
sV52013
p6393
I5843
sV52012
p6394
I5842
sV56021
p6395
I6404
sV52017
p6396
I5844
sV25453
p6397
I2168
sV36213
p6398
I3533
sV36212
p6399
I3532
sV64100
p6400
I7527
sV60102
p6401
I6966
sV60103
p6402
I6967
sV60106
p6403
I6968
sV60107
p6404
I6969
sV65099
p6405
I7666
sV46740
p6406
I5038
sV49022
p6407
I5372
sV42595
p6408
I4482
sV46745
p6409
I5039
sV42597
p6410
I4483
sV47057
p6411
I5096
sV2472
p6412
I2049
sV2470
p6413
I2043
sV28294
p6414
I2551
sV45215
p6415
I4836
sV57197
p6416
I6566
sV7871
p6417
I8323
sV39935
p6418
I4073
sV47053
p6419
I5095
sV41468
p6420
I4326
sV16869
p6421
I969
sV16860
p6422
I968
sV6309
p6423
I7389
sV12151
p6424
I339
sV6302
p6425
I7388
sV10136
p6426
I28
sV59841
p6427
I6922
sV48198
p6428
I5272
sV59846
p6429
I6923
sV53638
p6430
I6075
sV39688
p6431
I4045
sV9319
p6432
I8537
sV29220
p6433
I2660
sV53633
p6434
I6074
sV40994
p6435
I4239
sV9643
p6436
I8582
sV10425
p6437
I74
sV33060
p6438
I3155
sV33063
p6439
I3156
sV37031
p6440
I3635
sV18866
p6441
I1220
sV18867
p6442
I1221
sV33067
p6443
I3157
sV18865
p6444
I1219
sV54948
p6445
I6260
sV49681
p6446
I5480
sV21752
p6447
I1599
sV48192
p6448
I5271
sV41247
p6449
I4286
sV41240
p6450
I4285
sV41248
p6451
I4287
sV40192
p6452
I4114
sV1630
p6453
I871
sV1631
p6454
I872
sV49978
p6455
I5515
sV1638
p6456
I883
sV49970
p6457
I5513
sV49971
p6458
I5514
sV48089
p6459
I5261
sV45079
p6460
I4810
sV44305
p6461
I4690
sV29959
p6462
I2722
sV29953
p6463
I2721
sV29950
p6464
I2720
sV18285
p6465
I1161
sV41138
p6466
I4266
sV54369
p6467
I6184
sV28579
p6468
I2583
sV68566
p6469
I8170
sV3378
p6470
I3228
sV58462
p6471
I6727
sV5424
p6472
I6161
sV1185
p6473
I304
sV3373
p6474
I3226
sV5423
p6475
I6160
sV4248
p6476
I4460
sV4247
p6477
I4456
sV4244
p6478
I4450
sV4241
p6479
I4448
sV18139
p6480
I1138
sV18130
p6481
I1137
sV50831
p6482
I5654
sV50830
p6483
I5653
sV44
p6484
I4664
sV7741
p6485
I8309
sV66174
p6486
I7843
sV46903
p6487
I5072
sV66170
p6488
I7840
sV66173
p6489
I7842
sV35300
p6490
I3446
sV35301
p6491
I3447
sV66178
p6492
I7844
sV47358
p6493
I5135
sV51464
p6494
I5764
sV51466
p6495
I5765
sV47357
p6496
I5134
sV30886
p6497
I2843
sV30887
p6498
I2844
sV6543
p6499
I7742
sV61777
p6500
I7212
sV6541
p6501
I7737
sV30881
p6502
I2842
sV15078
p6503
I725
sV25931
p6504
I2229
sV23997
p6505
I1957
sV23993
p6506
I1956
sV23448
p6507
I1846
sV18242
p6508
I1149
sV58395
p6509
I6717
sV32109
p6510
I3024
sV16671
p6511
I930
sV16672
p6512
I931
sV16675
p6513
I932
sV32302
p6514
I3051
sV16679
p6515
I933
sV32309
p6516
I3052
sV6151
p6517
I7179
sV12703
p6518
I433
sV6153
p6519
I7181
sV61192
p6520
I7128
sV6156
p6521
I7185
sV61198
p6522
I7129
sV10960
p6523
I177
sV10969
p6524
I178
sV13457
p6525
I532
sV64702
p6526
I7610
sV64703
p6527
I7611
sV25669
p6528
I2196
sV64707
p6529
I7612
sV46487
p6530
I4993
sV46486
p6531
I4992
sV46483
p6532
I4991
sV16495
p6533
I899
sV16497
p6534
I901
sV16496
p6535
I900
sV63736
p6536
I7476
sV22716
p6537
I1737
sV61999
p6538
I7237
sV59911
p6539
I6933
sV6586
p6540
I7805
sV26156
p6541
I2249
sV26155
p6542
I2248
sV8208
p6543
I8374
sV25592
p6544
I2186
sV25590
p6545
I2185
sV46262
p6546
I4955
sV46266
p6547
I4957
sV46264
p6548
I4956
sV46269
p6549
I4958
sV49764
p6550
I5487
sV38435
p6551
I3836
sV38434
p6552
I3835
sV52481
p6553
I5905
sV38439
p6554
I3838
sV38438
p6555
I3837
sV2044
p6556
I1407
sV41908
p6557
I4382
sV41901
p6558
I4380
sV41906
p6559
I4381
sV11616
p6560
I279
sV57050
p6561
I6543
sV3150
p6562
I2939
sV57504
p6563
I6612
sV11610
p6564
I278
sV53024
p6565
I5986
sV10633
p6566
I124
sV11618
p6567
I280
sV18459
p6568
I1180
sV58856
p6569
I6787
sV54558
p6570
I6198
sV54559
p6571
I6199
sV18453
p6572
I1179
sV18452
p6573
I1178
sV58858
p6574
I6788
sV11266
p6575
I243
sV62460
p6576
I7294
sV62466
p6577
I7295
sV17878
p6578
I1098
sV60645
p6579
I7040
sV53942
p6580
I6124
sV60647
p6581
I7042
sV37837
p6582
I3740
sV53282
p6583
I6013
sV11084
p6584
I205
sV62646
p6585
I7318
sV62644
p6586
I7317
sV33212
p6587
I3180
sV33213
p6588
I3181
sV62649
p6589
I7319
sV48414
p6590
I5294
sV20417
p6591
I1401
sV20410
p6592
I1399
sV20411
p6593
I1400
sV48411
p6594
I5292
sV10093
p6595
I21
sV10095
p6596
I22
sV67037
p6597
I7971
sV67031
p6598
I7970
sV41767
p6599
I4358
sV41761
p6600
I4357
sV41769
p6601
I4359
sV12949
p6602
I458
sV15668
p6603
I803
sV15662
p6604
I801
sV15666
p6605
I802
sV7073
p6606
I8207
sV14394
p6607
I628
sV14395
p6608
I629
sV37953
p6609
I3758
sV18634
p6610
I1198
sV54080
p6611
I6142
sV37957
p6612
I3759
sV19275
p6613
I1269
sV37959
p6614
I3760
sV18639
p6615
I1200
sV6976
p6616
I8200
sV30744
p6617
I2820
sV6975
p6618
I8199
sV8167
p6619
I8367
sV15910
p6620
I828
sV15441
p6621
I773
sV15912
p6622
I829
sV12499
p6623
I405
sV12498
p6624
I404
sV26719
p6625
I2328
sV50709
p6626
I5637
sV26712
p6627
I2327
sV50702
p6628
I5636
sV66349
p6629
I7864
sV47509
p6630
I5164
sV66612
p6631
I7907
sV66616
p6632
I7908
sV61343
p6633
I7154
sV34797
p6634
I3367
sV61346
p6635
I7157
sV34790
p6636
I3366
sV61344
p6637
I7155
sV40410
p6638
I4157
sV40419
p6639
I4158
sV4389
p6640
I4649
sV24418
p6641
I2016
sV24419
p6642
I2017
sV4387
p6643
I4646
sV23297
p6644
I1830
sV28745
p6645
I2604
sV28214
p6646
I2535
sV28966
p6647
I2627
sV28743
p6648
I2603
sV66824
p6649
I7934
sV22471
p6650
I1699
sV51053
p6651
I5682
sV13728
p6652
I556
sV26363
p6653
I2267
sV26367
p6654
I2268
sV51076
p6655
I5686
sV51074
p6656
I5684
sV51075
p6657
I5685
sV19142
p6658
I1255
sV51070
p6659
I5683
sV52259
p6660
I5876
sV56229
p6661
I6432
sV52253
p6662
I5875
sV56227
p6663
I6431
sV23870
p6664
I1934
sV65864
p6665
I7806
sV27140
p6666
I2399
sV65647
p6667
I7768
sV61520
p6668
I7180
sV51612
p6669
I5790
sV65868
p6670
I7807
sV51615
p6671
I5791
sV60123
p6672
I6972
sV43999
p6673
I4663
sV36237
p6674
I3537
sV43993
p6675
I4661
sV36235
p6676
I3536
sV43994
p6677
I4662
sV43745
p6678
I4623
sV42029
p6679
I4403
sV14083
p6680
I598
sV61292
p6681
I7142
sV2459
p6682
I2031
sV65571
p6683
I7753
sV2454
p6684
I2024
sV2457
p6685
I2029
sV63697
p6686
I7464
sV7859
p6687
I8321
sV39916
p6688
I4068
sV63699
p6689
I7465
sV16808
p6690
I954
sV61830
p6691
I7218
sV61832
p6692
I7219
sV5494
p6693
I6259
sV61839
p6694
I7220
sV16805
p6695
I953
sV6368
p6696
I7463
sV52033
p6697
I5850
sV52031
p6698
I5849
sV46727
p6699
I5036
sV6366
p6700
I7462
sV38090
p6701
I3784
sV10402
p6702
I67
sV10403
p6703
I68
sV36949
p6704
I3625
sV10405
p6705
I69
sV10406
p6706
I70
sV10407
p6707
I71
sV10408
p6708
I72
sV10409
p6709
I73
sV53349
p6710
I6025
sV49040
p6711
I5376
sV192
p6712
I1265
sV68028
p6713
I8095
sV58994
p6714
I6809
sV33048
p6715
I3153
sV33047
p6716
I3152
sV37013
p6717
I3633
sV18844
p6718
I1218
sV21735
p6719
I1596
sV62878
p6720
I7370
sV41221
p6721
I4283
sV68024
p6722
I8092
sV62871
p6723
I7367
sV62873
p6724
I7368
sV62877
p6725
I7369
sV26969
p6726
I2361
sV49951
p6727
I5508
sV66689
p6728
I7922
sV49958
p6729
I5509
sV26645
p6730
I2312
sV3233
p6731
I3055
sV58198
p6732
I6690
sV3234
p6733
I3056
sV1616
p6734
I852
sV58196
p6735
I6689
sV1613
p6736
I851
sV58194
p6737
I6688
sV54577
p6738
I6204
sV13260
p6739
I501
sV41595
p6740
I4346
sV2872
p6741
I2599
sV44329
p6742
I4696
sV44324
p6743
I4693
sV44325
p6744
I4694
sV44326
p6745
I4695
sV44321
p6746
I4692
sV40317
p6747
I4131
sV40316
p6748
I4130
sV3352
p6749
I3211
sV58449
p6750
I6723
sV3359
p6751
I3216
sV20064
p6752
I1356
sV8575
p6753
I8425
sV38745
p6754
I3872
sV62255
p6755
I7263
sV38747
p6756
I3873
sV45898
p6757
I4930
sV38742
p6758
I3871
sV34891
p6759
I3383
sV44100
p6760
I4677
sV31110
p6761
I2885
sV53617
p6762
I6071
sV18151
p6763
I1140
sV5500
p6764
I6265
sV5501
p6765
I6266
sV29976
p6766
I2727
sV29970
p6767
I2725
sV29971
p6768
I2726
sV40303
p6769
I4129
sV66152
p6770
I7834
sV23607
p6771
I1881
sV57209
p6772
I6568
sV23602
p6773
I1880
sV66154
p6774
I7835
sV66158
p6775
I7836
sV23608
p6776
I1882
sV27774
p6777
I2465
sV27775
p6778
I2466
sV47339
p6779
I5131
sV61758
p6780
I7210
sV59316
p6781
I6860
sV6561
p6782
I7755
sV61757
p6783
I7209
sV35140
p6784
I3428
sV35141
p6785
I3429
sV23460
p6786
I1852
sV3826
p6787
I3809
sV23465
p6788
I1853
sV34633
p6789
I3345
sV31376
p6790
I2917
sV369
p6791
I3615
sV39162
p6792
I3943
sV362
p6793
I3530
sV363
p6794
I3545
sV360
p6795
I3505
sV361
p6796
I3514
sV55924
p6797
I6379
sV16654
p6798
I928
sV51911
p6799
I5833
sV51912
p6800
I5834
sV20075
p6801
I1358
sV65183
p6802
I7682
sV65182
p6803
I7681
sV6172
p6804
I7206
sV12720
p6805
I436
sV10988
p6806
I181
sV6510
p6807
I7667
sV52933
p6808
I5975
sV24604
p6809
I2033
sV24603
p6810
I2032
sV60803
p6811
I7063
sV24608
p6812
I2034
sV60804
p6813
I7064
sV65325
p6814
I7718
sV24959
p6815
I2080
sV65320
p6816
I7716
sV65322
p6817
I7717
sV46464
p6818
I4988
sV38987
p6819
I3914
sV9483
p6820
I8553
sV54698
p6821
I6223
sV22735
p6822
I1743
sV51397
p6823
I5752
sV31807
p6824
I2972
sV64581
p6825
I7588
sV33232
p6826
I3183
sV11580
p6827
I275
sV55816
p6828
I6364
sV5816
p6829
I6682
sV43034
p6830
I4540
sV43037
p6831
I4541
sV21380
p6832
I1543
sV21385
p6833
I1544
sV41967
p6834
I4393
sV4528
p6835
I4843
sV58231
p6836
I6696
sV4526
p6837
I4842
sV13453
p6838
I531
sV4521
p6839
I4835
sV13451
p6840
I530
sV13333
p6841
I508
sV7990
p6842
I8338
sV62405
p6843
I7282
sV62404
p6844
I7281
sV33182
p6845
I3176
sV58830
p6846
I6780
sV58833
p6847
I6782
sV58832
p6848
I6781
sV58834
p6849
I6783
sV60665
p6850
I7044
sV52753
p6851
I5943
sV20655
p6852
I1436
sV27973
p6853
I2503
sV63860
p6854
I7489
sV42925
p6855
I4525
sV42923
p6856
I4524
sV6517
p6857
I7679
sV48437
p6858
I5298
sV48431
p6859
I5297
sV48438
p6860
I5299
sV34958
p6861
I3389
sV34959
p6862
I3390
sV48122
p6863
I5267
sV48120
p6864
I5266
sV20471
p6865
I1411
sV48127
p6866
I5269
sV48125
p6867
I5268
sV7335
p6868
I8247
sV9297
p6869
I8530
sV33454
p6870
I3208
sV18433
p6871
I1176
sV18432
p6872
I1175
sV54573
p6873
I6202
sV11969
p6874
I319
sV59124
p6875
I6825
sV59125
p6876
I6826
sV59126
p6877
I6827
sV15604
p6878
I792
sV59122
p6879
I6823
sV59123
p6880
I6824
sV53407
p6881
I6033
sV53406
p6882
I6032
sV10211
p6883
I37
sV53408
p6884
I6034
sV33982
p6885
I3261
sV33231
p6886
I3182
sV33980
p6887
I3260
sV33233
p6888
I3184
sV33986
p6889
I3262
sV37978
p6890
I3765
sV18386
p6891
I1172
sV18384
p6892
I1171
sV37972
p6893
I3764
sV30767
p6894
I2822
sV30766
p6895
I2821
sV8638
p6896
I8443
sV8140
p6897
I8365
sV8143
p6898
I8366
sV65128
p6899
I7673
sV34402
p6900
I3317
sV30982
p6901
I2862
sV26734
p6902
I2331
sV39378
p6903
I4001
sV39370
p6904
I4000
sV50279
p6905
I5556
sV50278
p6906
I5555
sV50272
p6907
I5554
sV50271
p6908
I5553
sV31583
p6909
I2948
sV2995
p6910
I2719
sV47525
p6911
I5170
sV47523
p6912
I5169
sV47832
p6913
I5221
sV67415
p6914
I8022
sV50270
p6915
I5552
sV24127
p6916
I1975
sV62920
p6917
I7375
sV9998
p6918
I8637
sV50183
p6919
I5545
sV50182
p6920
I5544
sV40438
p6921
I4163
sV40439
p6922
I4164
sV40434
p6923
I4161
sV40435
p6924
I4162
sV40430
p6925
I4160
sV9994
p6926
I8636
sV14514
p6927
I659
sV14512
p6928
I658
sV14510
p6929
I656
sV14511
p6930
I657
sV28723
p6931
I2600
sV50989
p6932
I5676
sV66898
p6933
I7947
sV32800
p6934
I3127
sV32803
p6935
I3128
sV66890
p6936
I7946
sV19169
p6937
I1257
sV61323
p6938
I7147
sV61325
p6939
I7149
sV61324
p6940
I7148
sV60324
p6941
I6997
sV60325
p6942
I6998
sV66149
p6943
I7833
sV23818
p6944
I1924
sV19299
p6945
I1274
sV23816
p6946
I1923
sV27129
p6947
I2393
sV65848
p6948
I7801
sV65661
p6949
I7771
sV65662
p6950
I7772
sV27122
p6951
I2392
sV65665
p6952
I7773
sV65842
p6953
I7799
sV25141
p6954
I2110
sV25145
p6955
I2112
sV25144
p6956
I2111
sV25410
p6957
I2162
sV25149
p6958
I2113
sV66411
p6959
I7872
sV46077
p6960
I4943
sV42008
p6961
I4400
sV42006
p6962
I4399
sV42001
p6963
I4398
sV52237
p6964
I5872
sV52238
p6965
I5873
sV2433
p6966
I2008
sV2432
p6967
I2005
sV19836
p6968
I1329
sV16821
p6969
I958
sV16354
p6970
I881
sV16823
p6971
I959
sV16825
p6972
I960
sV16350
p6973
I879
sV16827
p6974
I961
sV19839
p6975
I1330
sV61811
p6976
I7215
sV12117
p6977
I335
sV12118
p6978
I336
sV56063
p6979
I6409
sV17198
p6980
I1017
sV57332
p6981
I6587
sV9605
p6982
I8573
sV9356
p6983
I8541
sV9607
p6984
I8575
sV65384
p6985
I7731
sV10170
p6986
I29
sV10172
p6987
I30
sV10175
p6988
I31
sV36965
p6989
I3626
sV21247
p6990
I1527
sV46695
p6991
I5032
sV21714
p6992
I1591
sV48028
p6993
I5255
sV21248
p6994
I1528
sV3782
p6995
I3738
sV3780
p6996
I3734
sV3781
p6997
I3737
sV65387
p6998
I7733
sV3788
p6999
I3746
sV4997
p7000
I5512
sV20500
p7001
I1415
sV45525
p7002
I4875
sV41201
p7003
I4280
sV41203
p7004
I4281
sV45521
p7005
I4872
sV41205
p7006
I4282
sV45523
p7007
I4873
sV4999
p7008
I5518
sV26948
p7009
I2358
sV21908
p7010
I1616
sV40153
p7011
I4110
sV26943
p7012
I2356
sV26947
p7013
I2357
sV37396
p7014
I3689
sV14075
p7015
I597
sV49427
p7016
I5434
sV3250
p7017
I3075
sV68744
p7018
I8192
sV68745
p7019
I8193
sV13243
p7020
I497
sV13247
p7021
I499
sV59809
p7022
I6912
sV13244
p7023
I498
sV59805
p7024
I6911
sV59801
p7025
I6910
sV5461
p7026
I6209
sV21907
p7027
I1615
sV54321
p7028
I6178
sV58316
p7029
I6708
sV28534
p7030
I2579
sV54326
p7031
I6179
sV20041
p7032
I1351
sV20045
p7033
I1352
sV38767
p7034
I3874
sV62234
p7035
I7259
sV36612
p7036
I3585
sV36619
p7037
I3586
sV60108
p7038
I6970
sV32484
p7039
I3072
sV67779
p7040
I8056
sV14642
p7041
I664
sV40330
p7042
I4136
sV47646
p7043
I5196
sV47647
p7044
I5197
sV23660
p7045
I1889
sV47642
p7046
I5195
sV47317
p7047
I5130
sV66135
p7048
I7830
sV8285
p7049
I8389
sV8281
p7050
I8388
sV15032
p7051
I720
sV59372
p7052
I6867
sV15036
p7053
I723
sV15037
p7054
I724
sV15034
p7055
I721
sV15035
p7056
I722
sV39498
p7057
I4019
sV31178
p7058
I2893
sV55491
p7059
I6312
sV60282
p7060
I6992
sV55497
p7061
I6313
sV23486
p7062
I1859
sV23485
p7063
I1858
sV23480
p7064
I1857
sV34611
p7065
I3339
sV8465
p7066
I8413
sV34618
p7067
I3340
sV39144
p7068
I3938
sV39145
p7069
I3939
sV39146
p7070
I3940
sV39147
p7071
I3941
sV35698
p7072
I3479
sV35699
p7073
I3480
sV31399
p7074
I2922
sV31398
p7075
I2921
sV50518
p7076
I5596
sV50514
p7077
I5594
sV50515
p7078
I5595
sV35697
p7079
I3478
sV55835
p7080
I6367
sV32613
p7081
I3101
sV32612
p7082
I3100
sV19625
p7083
I1302
sV22282
p7084
I1683
sV52916
p7085
I5967
sV22280
p7086
I1682
sV22285
p7087
I1684
sV52913
p7088
I5966
sV52919
p7089
I5968
sV13885
p7090
I582
sV13884
p7091
I581
sV60863
p7092
I7073
sV64834
p7093
I7630
sV60866
p7094
I7074
sV60869
p7095
I7075
sV26446
p7096
I2278
sV26440
p7097
I2277
sV25628
p7098
I2190
sV18339
p7099
I1165
sV24626
p7100
I2036
sV65303
p7101
I7710
sV65302
p7102
I7709
sV65305
p7103
I7711
sV46443
p7104
I4987
sV46193
p7105
I4948
sV24970
p7106
I2085
sV7396
p7107
I8257
sV38965
p7108
I3912
sV38964
p7109
I3911
sV43541
p7110
I4592
sV43016
p7111
I4537
sV43543
p7112
I4593
sV31820
p7113
I2974
sV43013
p7114
I4536
sV43547
p7115
I4594
sV28443
p7116
I2569
sV26190
p7117
I2255
sV26196
p7118
I2256
sV43018
p7119
I4538
sV1
I0
sV5925
p7120
I6848
sV5927
p7121
I6853
sV58590
p7122
I6741
sV28440
p7123
I2568
sV9768
p7124
I8598
sV17506
p7125
I1052
sV10054
p7126
I7
sV17500
p7127
I1051
sV4503
p7128
I4806
sV41948
p7129
I4391
sV41943
p7130
I4390
sV41940
p7131
I4389
sV64076
p7132
I7524
sV2088
p7133
I1474
sV20674
p7134
I1441
sV52771
p7135
I5949
sV52772
p7136
I5950
sV20670
p7137
I1439
sV20672
p7138
I1440
sV55262
p7139
I6294
sV62427
p7140
I7285
sV62937
p7141
I7382
sV62424
p7142
I7284
sV62932
p7143
I7380
sV60681
p7144
I7046
sV60683
p7145
I7048
sV60682
p7146
I7047
sV36578
p7147
I3575
sV42940
p7148
I4527
sV42946
p7149
I4528
sV63889
p7150
I7492
sV46998
p7151
I5088
sV63883
p7152
I7491
sV45756
p7153
I4914
sV45754
p7154
I4913
sV41419
p7155
I4318
sV27484
p7156
I2437
sV20457
p7157
I1409
sV20458
p7158
I1410
sV32660
p7159
I3106
sV41410
p7160
I4315
sV45758
p7161
I4915
sV51903
p7162
I5832
sV53797
p7163
I6103
sV32662
p7164
I3108
sV66588
p7165
I7902
sV53798
p7166
I6104
sV44599
p7167
I4735
sV44598
p7168
I4734
sV7315
p7169
I8245
sV44594
p7170
I4733
sV65198
p7171
I7688
sV33433
p7172
I3207
sV33430
p7173
I3205
sV33431
p7174
I3206
sV58811
p7175
I6775
sV54519
p7176
I6192
sV18413
p7177
I1173
sV59142
p7178
I6832
sV59141
p7179
I6831
sV59146
p7180
I6834
sV59145
p7181
I6833
sV12906
p7182
I456
sV59148
p7183
I6835
sV30161
p7184
I2747
sV30160
p7185
I2746
sV12900
p7186
I455
sV10233
p7187
I42
sV10231
p7188
I41
sV53420
p7189
I6037
sV9010
p7190
I8492
sV53426
p7191
I6038
sV10234
p7192
I43
sV64507
p7193
I7583
sV63331
p7194
I7423
sV63332
p7195
I7424
sV63333
p7196
I7425
sV68480
p7197
I8161
sV37221
p7198
I3660
sV37220
p7199
I3659
sV37737
p7200
I3729
sV15488
p7201
I781
sV15482
p7202
I779
sV64383
p7203
I7561
sV15487
p7204
I780
sV15957
p7205
I833
sV50213
p7206
I5548
sV7780
p7207
I8314
sV66300
p7208
I7863
sV26651
p7209
I2315
sV58769
p7210
I6769
sV68267
p7211
I8124
sV68265
p7212
I8123
sV1008
p7213
I14
sV1003
p7214
I5
sV52901
p7215
I5965
sV47814
p7216
I5216
sV51333
p7217
I5740
sV4344
p7218
I4585
sV28253
p7219
I2538
sV28702
p7220
I2597
sV28254
p7221
I2539
sV28259
p7222
I2540
sV14530
p7223
I662
sV11012
p7224
I191
sV11013
p7225
I192
sV8611
p7226
I8440
sV34421
p7227
I3319
sV17885
p7228
I1100
sV38151
p7229
I3799
sV17887
p7230
I1102
sV17886
p7231
I1101
sV66260
p7232
I7859
sV43226
p7233
I4562
sV19102
p7234
I1247
sV32863
p7235
I3138
sV32860
p7236
I3137
sV65847
p7237
I7800
sV19106
p7238
I1249
sV19107
p7239
I1250
sV32864
p7240
I3139
sV19105
p7241
I1248
sV61659
p7242
I7203
sV9301
p7243
I8532
sV61301
p7244
I7146
sV21588
p7245
I1577
sV35488
p7246
I3466
sV60301
p7247
I6995
sV35481
p7248
I3463
sV35480
p7249
I3462
sV35483
p7250
I3465
sV35482
p7251
I3464
sV23345
p7252
I1840
sV21587
p7253
I1576
sV28879
p7254
I2619
sV27100
p7255
I2391
sV65826
p7256
I7793
sV43484
p7257
I4588
sV25163
p7258
I2116
sV43481
p7259
I4586
sV43482
p7260
I4587
sV55684
p7261
I6344
sV32288
p7262
I3047
sV32289
p7263
I3048
sV47263
p7264
I5125
sV12689
p7265
I428
sV888
p7266
I8472
sV23025
p7267
I1783
sV32916
p7268
I3143
sV56267
p7269
I6440
sV56264
p7270
I6438
sV56265
p7271
I6439
sV56269
p7272
I6441
sV10829
p7273
I156
sV57682
p7274
I6636
sV57681
p7275
I6635
sV7815
p7276
I8318
sV39959
p7277
I4077
sV39957
p7278
I4076
sV57133
p7279
I6559
sV57132
p7280
I6558
sV19818
p7281
I1327
sV42687
p7282
I4489
sV32135
p7283
I3025
sV32136
p7284
I3026
sV3572
p7285
I3484
sV19811
p7286
I1325
sV19813
p7287
I1326
sV61879
p7288
I7227
sV64152
p7289
I7532
sV56089
p7290
I6413
sV56084
p7291
I6412
sV56083
p7292
I6411
sV53308
p7293
I6016
sV53309
p7294
I6017
sV63430
p7295
I7441
sV53302
p7296
I6014
sV53304
p7297
I6015
sV37502
p7298
I3701
sV37500
p7299
I3700
sV49199
p7300
I5412
sV56343
p7301
I6452
sV49190
p7302
I5410
sV49192
p7303
I5411
sV56886
p7304
I6527
sV8911
p7305
I8476
sV1829
p7306
I1162
sV1827
p7307
I1159
sV2411
p7308
I1970
sV2410
p7309
I1969
sV4979
p7310
I5488
sV2416
p7311
I1978
sV31197
p7312
I2895
sV4976
p7313
I5486
sV49993
p7314
I5519
sV68015
p7315
I8091
sV49449
p7316
I5441
sV41084
p7317
I4251
sV36902
p7318
I3616
sV36907
p7319
I3617
sV13221
p7320
I494
sV14945
p7321
I705
sV14944
p7322
I704
sV14235
p7323
I611
sV54656
p7324
I6217
sV14232
p7325
I610
sV14231
p7326
I609
sV54652
p7327
I6215
sV58787
p7328
I6773
sV14239
p7329
I612
sV62746
p7330
I7344
sV62747
p7331
I7345
sV38705
p7332
I3865
sV62743
p7333
I7343
sV38707
p7334
I3867
sV38706
p7335
I3866
sV5487
p7336
I6254
sV5486
p7337
I6253
sV3313
p7338
I3168
sV3315
p7339
I3172
sV5482
p7340
I6248
sV62749
p7341
I7346
sV34855
p7342
I3380
sV30579
p7343
I2808
sV56629
p7344
I6492
sV44104
p7345
I4678
sV44105
p7346
I4679
sV44106
p7347
I4680
sV44107
p7348
I4681
sV36637
p7349
I3589
sV47483
p7350
I5158
sV47485
p7351
I5159
sV18198
p7352
I1145
sV18191
p7353
I1144
sV50790
p7354
I5647
sV58784
p7355
I6771
sV59682
p7356
I6889
sV59684
p7357
I6890
sV505
p7358
I5593
sV29935
p7359
I2717
sV40680
p7360
I4195
sV23138
p7361
I1805
sV23139
p7362
I1806
sV23137
p7363
I1804
sV23643
p7364
I1887
sV23132
p7365
I1803
sV23130
p7366
I1802
sV27738
p7367
I2458
sV15011
p7368
I714
sV15013
p7369
I715
sV30392
p7370
I2772
sV15018
p7371
I716
sV48901
p7372
I5356
sV48903
p7373
I5357
sV48904
p7374
I5358
sV27735
p7375
I2456
sV27737
p7376
I2457
sV62906
p7377
I7374
sV25992
p7378
I2234
sV35108
p7379
I3415
sV35109
p7380
I3416
sV16355
p7381
I882
sV31159
p7382
I2889
sV31157
p7383
I2888
sV31156
p7384
I2887
sV35103
p7385
I3413
sV31620
p7386
I2951
sV31623
p7387
I2952
sV35107
p7388
I3414
sV55479
p7389
I6310
sV16351
p7390
I880
sV55471
p7391
I6309
sV34671
p7392
I3353
sV34670
p7393
I3352
sV34672
p7394
I3354
sV34675
p7395
I3355
sV34677
p7396
I3356
sV7573
p7397
I8285
sV17510
p7398
I1053
sV7574
p7399
I8286
sV54621
p7400
I6212
sV9815
p7401
I8606
sV14280
p7402
I614
sV66441
p7403
I7875
sV66440
p7404
I7874
sV50029
p7405
I5522
sV66447
p7406
I7877
sV32544
p7407
I3079
sV54624
p7408
I6213
sV32547
p7409
I3082
sV37486
p7410
I3697
sV55218
p7411
I6290
sV54626
p7412
I6214
sV55212
p7413
I6289
sV55210
p7414
I6288
sV33309
p7415
I3196
sV52979
p7416
I5982
sV26461
p7417
I2285
sV26460
p7418
I2284
sV26467
p7419
I2286
sV64815
p7420
I7623
sV64817
p7421
I7624
sV28115
p7422
I2517
sV35639
p7423
I3472
sV28111
p7424
I2516
sV24645
p7425
I2038
sV28118
p7426
I2518
sV65369
p7427
I7728
sV65368
p7428
I7727
sV22770
p7429
I1749
sV65363
p7430
I7726
sV65490
p7431
I7744
sV31993
p7432
I3013
sV38949
p7433
I3905
sV31992
p7434
I3012
sV11090
p7435
I208
sV38946
p7436
I3904
sV31990
p7437
I3011
sV31840
p7438
I2979
sV43562
p7439
I4601
sV43561
p7440
I4600
sV51775
p7441
I5807
sV32635
p7442
I3102
sV5901
p7443
I6810
sV51771
p7444
I5806
sV16164
p7445
I853
sV19319
p7446
I1277
sV19318
p7447
I1276
sV38493
p7448
I3848
sV38492
p7449
I3847
sV38495
p7450
I3850
sV38494
p7451
I3849
sV38499
p7452
I3851
sV3480
p7453
I3368
sV59519
p7454
I6879
sV4561
p7455
I4893
sV60519
p7456
I7024
sV60516
p7457
I7023
sV27932
p7458
I2495
sV45191
p7459
I4829
sV20610
p7460
I1432
sV27931
p7461
I2494
sV45194
p7462
I4831
sV27937
p7463
I2497
sV27935
p7464
I2496
sV45199
p7465
I4832
sV20618
p7466
I1434
sV25207
p7467
I2121
sV25200
p7468
I2120
sV16780
p7469
I951
sV9606
p7470
I8574
sV6065
p7471
I7043
sV12096
p7472
I333
sV49299
p7473
I5421
sV58823
p7474
I6778
sV49295
p7475
I5420
sV42742
p7476
I4496
sV5450
p7477
I6190
sV20928
p7478
I1483
sV2602
p7479
I2236
sV20924
p7480
I1481
sV41432
p7481
I4321
sV20921
p7482
I1480
sV39723
p7483
I4048
sV10787
p7484
I149
sV58824
p7485
I6779
sV39728
p7486
I4049
sV7379
p7487
I8254
sV21691
p7488
I1588
sV21699
p7489
I1589
sV5278
p7490
I5951
sV11925
p7491
I311
sV54536
p7492
I6194
sV33141
p7493
I3171
sV30498
p7494
I2794
sV30493
p7495
I2791
sV30495
p7496
I2793
sV30494
p7497
I2792
sV10258
p7498
I50
sV9030
p7499
I8494
sV9037
p7500
I8495
sV53441
p7501
I6041
sV53442
p7502
I6042
sV27941
p7503
I2500
sV10257
p7504
I49
sV10256
p7505
I48
sV21522
p7506
I1563
sV21521
p7507
I1562
sV21520
p7508
I1561
sV54790
p7509
I6239
sV18694
p7510
I1210
sV24005
p7511
I1961
sV24004
p7512
I1960
sV18699
p7513
I1211
sV49879
p7514
I5499
sV37719
p7515
I3725
sV63355
p7516
I7426
sV753
p7517
I8282
sV751
p7518
I8279
sV754
p7519
I8283
sV739
p7520
I8255
sV50234
p7521
I5550
sV50231
p7522
I5549
sV1025
p7523
I47
sV1027
p7524
I52
sV1026
p7525
I51
sV1021
p7526
I36
sV47877
p7527
I5226
sV5343
p7528
I6039
sV47878
p7529
I5227
sV62668
p7530
I7328
sV58748
p7531
I6768
sV5349
p7532
I6051
sV68204
p7533
I8118
sV18656
p7534
I1201
sV7704
p7535
I8303
sV67983
p7536
I8083
sV67453
p7537
I8024
sV37867
p7538
I3742
sV18031
p7539
I1127
sV18032
p7540
I1128
sV32730
p7541
I3118
sV37869
p7542
I3743
sV28278
p7543
I2544
sV21394
p7544
I1545
sV11078
p7545
I202
sV28270
p7546
I2543
sV3106
p7547
I2877
sV11074
p7548
I201
sV66830
p7549
I7937
sV8671
p7550
I8446
sV34441
p7551
I3320
sV5
I5520
sV38133
p7552
I3794
sV38134
p7553
I3795
sV31452
p7554
I2929
sV50947
p7555
I5669
sV50943
p7556
I5668
sV47295
p7557
I5129
sV23584
p7558
I1877
sV56344
p7559
I6453
sV23581
p7560
I1876
sV45524
p7561
I4874
sV66585
p7562
I7901
sV66850
p7563
I7941
sV23588
p7564
I1878
sV45526
p7565
I4876
sV51548
p7566
I5775
sV51549
p7567
I5776
sV19123
p7568
I1252
sV19124
p7569
I1253
sV27698
p7570
I2453
sV59084
p7571
I6815
sV60982
p7572
I7097
sV28858
p7573
I2617
sV28857
p7574
I2616
sV28850
p7575
I2614
sV28851
p7576
I2615
sV61580
p7577
I7187
sV61582
p7578
I7188
sV15201
p7579
I741
sV15200
p7580
I740
sV61588
p7581
I7189
sV22189
p7582
I1663
sV39262
p7583
I3973
sV44697
p7584
I4749
sV42516
p7585
I4472
sV16574
p7586
I913
sV19787
p7587
I1323
sV19782
p7588
I1322
sV12662
p7589
I426
sV12660
p7590
I424
sV12661
p7591
I425
sV56249
p7592
I6436
sV10809
p7593
I154
sV10805
p7594
I152
sV10806
p7595
I153
sV56244
p7596
I6434
sV10803
p7597
I151
sV63982
p7598
I7508
sV61857
p7599
I7226
sV6384
p7600
I7486
sV6381
p7601
I7483
sV61851
p7602
I7225
sV50966
p7603
I5672
sV43974
p7604
I4658
sV43977
p7605
I4659
sV60184
p7606
I6982
sV64176
p7607
I7540
sV60188
p7608
I6983
sV43978
p7609
I4660
sV64172
p7610
I7537
sV49607
p7611
I5468
sV49600
p7612
I5466
sV49601
p7613
I5467
sV63182
p7614
I7397
sV21834
p7615
I1611
sV21209
p7616
I1523
sV37520
p7617
I3703
sV37522
p7618
I3704
sV1849
p7619
I1184
sV45562
p7620
I4885
sV45565
p7621
I4886
sV45569
p7622
I4887
sV1846
p7623
I1181
sV4959
p7624
I5465
sV2169
p7625
I1587
sV2168
p7626
I1585
sV14031
p7627
I593
sV14030
p7628
I592
sV14035
p7629
I594
sV49466
p7630
I5446
sV52635
p7631
I5924
sV52634
p7632
I5923
sV17047
p7633
I998
sV17046
p7634
I997
sV17040
p7635
I995
sV17043
p7636
I996
sV5138
p7637
I5748
sV60720
p7638
I7051
sV60728
p7639
I7052
sV36383
p7640
I3554
sV53321
p7641
I6020
sV53322
p7642
I6021
sV53323
p7643
I6022
sV53324
p7644
I6023
sV36438
p7645
I3562
sV57371
p7646
I6592
sV36927
p7647
I3623
sV36926
p7648
I3622
sV36925
p7649
I3621
sV37386
p7650
I3685
sV14784
p7651
I683
sV37380
p7652
I3684
sV18201
p7653
I1146
sV45385
p7654
I4852
sV20005
p7655
I1347
sV20551
p7656
I1425
sV62769
p7657
I7351
sV62767
p7658
I7350
sV45389
p7659
I4853
sV20558
p7660
I1426
sV62762
p7661
I7348
sV62763
p7662
I7349
sV30559
p7663
I2805
sV34871
p7664
I3382
sV30553
p7665
I2804
sV40115
p7666
I4103
sV40112
p7667
I4102
sV59150
p7668
I6836
sV48733
p7669
I5326
sV6890
p7670
I8194
sV41608
p7671
I4349
sV41609
p7672
I4350
sV48735
p7673
I5327
sV41601
p7674
I4348
sV9895
p7675
I8613
sV17300
p7676
I1023
sV40808
p7677
I4212
sV40803
p7678
I4209
sV40805
p7679
I4210
sV40806
p7680
I4211
sV52314
p7681
I5884
sV47602
p7682
I5187
sV47603
p7683
I5188
sV47604
p7684
I5189
sV47605
p7685
I5190
sV8248
p7686
I8381
sV59400
p7687
I6873
sV59407
p7688
I6874
sV30808
p7689
I2831
sV8242
p7690
I8380
sV8791
p7691
I8457
sV8794
p7692
I8458
sV30800
p7693
I2829
sV30801
p7694
I2830
sV10908
p7695
I168
sV58319
p7696
I6709
sV8427
p7697
I8412
sV55188
p7698
I6287
sV34121
p7699
I3272
sV8423
p7700
I8411
sV34122
p7701
I3273
sV55180
p7702
I6284
sV55181
p7703
I6285
sV55186
p7704
I6286
sV39184
p7705
I3951
sV39182
p7706
I3949
sV39183
p7707
I3950
sV50002
p7708
I5521
sV35835
p7709
I3494
sV35836
p7710
I3495
sV7594
p7711
I8292
sV7593
p7712
I8291
sV44831
p7713
I4771
sV7591
p7714
I8289
sV7590
p7715
I8288
sV53045
p7716
I5991
sV23116
p7717
I1797
sV23113
p7718
I1796
sV66466
p7719
I7878
sV23119
p7720
I1798
sV22571
p7721
I1717
sV65168
p7722
I7678
sV22575
p7723
I1719
sV22574
p7724
I1718
sV5346
p7725
I6048
sV52958
p7726
I5979
sV52959
p7727
I5980
sV7472
p7728
I8273
sV52956
p7729
I5977
sV52957
p7730
I5978
sV4132
p7731
I4296
sV4134
p7732
I4300
sV4137
p7733
I4304
sV3841
p7734
I3831
sV60404
p7735
I7008
sV32439
p7736
I3063
sV28138
p7737
I2522
sV64183
p7738
I7541
sV56185
p7739
I6428
sV56184
p7740
I6427
sV38924
p7741
I3899
sV38926
p7742
I3900
sV38929
p7743
I3901
sV22790
p7744
I1752
sV31863
p7745
I2984
sV31860
p7746
I2983
sV5968
p7747
I6888
sV16046
p7748
I846
sV51751
p7749
I5803
sV19669
p7750
I1306
sV19666
p7751
I1305
sV19665
p7752
I1304
sV5964
p7753
I6885
sV16512
p7754
I904
sV19660
p7755
I1303
sV56765
p7756
I6510
sV56769
p7757
I6512
sV17543
p7758
I1056
sV17544
p7759
I1057
sV56982
p7760
I6534
sV51382
p7761
I5750
sV4543
p7762
I4861
sV64697
p7763
I7608
sV6638
p7764
I7866
sV57584
p7765
I6619
sV11693
p7766
I291
sV11690
p7767
I289
sV11691
p7768
I290
sV65347
p7769
I7723
sV65346
p7770
I7722
sV27312
p7771
I2415
sV65341
p7772
I7721
sV46407
p7773
I4985
sV46406
p7774
I4984
sV46405
p7775
I4983
sV46404
p7776
I4982
sV46402
p7777
I4981
sV27319
p7778
I2416
sV64437
p7779
I7574
sV64430
p7780
I7573
sV27910
p7781
I2489
sV27911
p7782
I2490
sV27912
p7783
I2491
sV22932
p7784
I1767
sV42234
p7785
I4417
sV42230
p7786
I4415
sV42231
p7787
I4416
sV6041
p7788
I7009
sV6046
p7789
I7020
sV6047
p7790
I7021
sV6044
p7791
I7015
sV42727
p7792
I4493
sV42725
p7793
I4492
sV55281
p7794
I6299
sV20948
p7795
I1489
sV56559
p7796
I6477
sV45712
p7797
I4907
sV20943
p7798
I1485
sV20946
p7799
I1487
sV20947
p7800
I1488
sV20944
p7801
I1486
sV45715
p7802
I4908
sV7353
p7803
I8250
sV10011
p7804
I1
sV8605
p7805
I8437
sV10017
p7806
I2
sV39368
p7807
I3997
sV54807
p7808
I6242
sV54802
p7809
I6240
sV54803
p7810
I6241
sV54809
p7811
I6243
sV62972
p7812
I7383
sV62977
p7813
I7385
sV62976
p7814
I7384
sV53469
p7815
I6049
sV10278
p7816
I53
sV21549
p7817
I1567
sV33293
p7818
I3195
sV37268
p7819
I3666
sV24060
p7820
I1963
sV24062
p7821
I1964
sV17946
p7822
I1114
sV20494
p7823
I1413
sV20496
p7824
I1414
sV41459
p7825
I4324
sV41458
p7826
I4323
sV22895
p7827
I1762
sV26793
p7828
I2340
sV44446
p7829
I4709
sV773
p7830
I8306
sV44442
p7831
I4708
sV29875
p7832
I2715
sV29874
p7833
I2714
sV67617
p7834
I8037
sV24326
p7835
I2007
sV24325
p7836
I2006
sV58729
p7837
I6763
sV68224
p7838
I8121
sV68221
p7839
I8120
sV1049
p7840
I85
sV1048
p7841
I82
sV65137
p7842
I7676
sV4303
p7843
I4539
sV4306
p7844
I4544
sV31296
p7845
I2908
sV31297
p7846
I2909
sV4308
p7847
I4546
sV11050
p7848
I198
sV18017
p7849
I1124
sV18015
p7850
I1123
sV11059
p7851
I199
sV24492
p7852
I2021
sV54118
p7853
I6149
sV38111
p7854
I3788
sV38112
p7855
I3789
sV3127
p7856
I2906
sV17842
p7857
I1095
sV40333
p7858
I4137
sV34463
p7859
I3321
sV34464
p7860
I3322
sV15993
p7861
I837
sV31479
p7862
I2935
sV31474
p7863
I2933
sV31476
p7864
I2934
sV35736
p7865
I3486
sV51565
p7866
I5779
sV51566
p7867
I5780
sV51567
p7868
I5781
sV23566
p7869
I1873
sV23560
p7870
I1872
sV61611
p7871
I7194
sV15197
p7872
I739
sV61612
p7873
I7195
sV61615
p7874
I7196
sV27674
p7875
I2451
sV27676
p7876
I2452
sV27670
p7877
I2450
sV66704
p7878
I7924
sV66703
p7879
I7923
sV51693
p7880
I5796
sV51690
p7881
I5795
sV23666
p7882
I1890
sV28837
p7883
I2611
sV23307
p7884
I1832
sV47146
p7885
I5107
sV15223
p7886
I745
sV15225
p7887
I747
sV15224
p7888
I746
sV39243
p7889
I3968
sV39242
p7890
I3967
sV46574
p7891
I5015
sV39244
p7892
I3969
sV7439
p7893
I8265
sV46572
p7894
I5014
sV16558
p7895
I909
sV12644
p7896
I420
sV6671
p7897
I7925
sV12641
p7898
I418
sV12642
p7899
I419
sV42538
p7900
I4477
sV31922
p7901
I3000
sV42535
p7902
I4476
sV31921
p7903
I2999
sV56518
p7904
I6475
sV764
p7905
I8295
sV43246
p7906
I4567
sV50616
p7907
I5607
sV10863
p7908
I162
sV10865
p7909
I163
sV21044
p7910
I1496
sV16883
p7911
I970
sV16332
p7912
I876
sV63969
p7913
I7504
sV63618
p7914
I7461
sV32178
p7915
I3029
sV16339
p7916
I877
sV63614
p7917
I7460
sV63613
p7918
I7459
sV21049
p7919
I1497
sV43913
p7920
I4653
sV43919
p7921
I4654
sV26234
p7922
I2260
sV42391
p7923
I4444
sV21952
p7924
I1623
sV42396
p7925
I4445
sV46360
p7926
I4976
sV46361
p7927
I4977
sV42399
p7928
I4446
sV49669
p7929
I5475
sV17683
p7930
I1073
sV17682
p7931
I1072
sV4685
p7932
I5053
sV4683
p7933
I5052
sV13591
p7934
I545
sV41846
p7935
I4372
sV45546
p7936
I4883
sV45543
p7937
I4882
sV41843
p7938
I4371
sV45541
p7939
I4881
sV11734
p7940
I295
sV57173
p7941
I6563
sV2108
p7942
I1501
sV57174
p7943
I6564
sV2101
p7944
I1494
sV14529
p7945
I661
sV14017
p7946
I589
sV59375
p7947
I6869
sV58119
p7948
I6674
sV49480
p7949
I5449
sV59374
p7950
I6868
sV20796
p7951
I1458
sV20793
p7952
I1457
sV17066
p7953
I999
sV6504
p7954
I7659
sV68054
p7955
I8098
sV20799
p7956
I1459
sV68057
p7957
I8099
sV36418
p7958
I3561
sV57398
p7959
I6598
sV53690
p7960
I6083
sV36412
p7961
I3558
sV53693
p7962
I6084
sV36417
p7963
I3560
sV53695
p7964
I6085
sV36415
p7965
I3559
sV10487
p7966
I84
sV54619
p7967
I6211
sV893
p7968
I8479
sV894
p7969
I8480
sV896
p7970
I8481
sV897
p7971
I8482
sV14903
p7972
I695
sV14905
p7973
I696
sV14906
p7974
I697
sV34810
p7975
I3372
sV34813
p7976
I3373
sV34814
p7977
I3374
sV51876
p7978
I5826
sV54655
p7979
I6216
sV36679
p7980
I3590
sV44631
p7981
I4742
sV1789
p7982
I1103
sV1783
p7983
I1093
sV1785
p7984
I1096
sV48759
p7985
I5331
sV48758
p7986
I5330
sV6873
p7987
I8187
sV40390
p7988
I4150
sV57820
p7989
I6647
sV40396
p7990
I4151
sV40399
p7991
I4152
sV57829
p7992
I6648
sV55498
p7993
I6314
sV51879
p7994
I5827
sV678
p7995
I8059
sV679
p7996
I8077
sV8226
p7997
I8378
sV674
p7998
I8019
sV30829
p7999
I2832
sV59399
p8000
I6872
sV39471
p8001
I4016
sV15503
p8002
I782
sV59391
p8003
I6871
sV39478
p8004
I4017
sV31669
p8005
I2957
sV31668
p8006
I2956
sV47445
p8007
I5152
sV47441
p8008
I5151
sV37108
p8009
I3646
sV34101
p8010
I3271
sV40536
p8011
I4172
sV40531
p8012
I4171
sV67869
p8013
I8071
sV67862
p8014
I8070
sV50996
p8015
I5677
sV50572
p8016
I5599
sV44851
p8017
I4775
sV50575
p8018
I5600
sV50576
p8019
I5601
sV23172
p8020
I1814
sV23173
p8021
I1815
sV47623
p8022
I5193
sV23176
p8023
I1816
sV23177
p8024
I1817
sV28489
p8025
I2575
sV34264
p8026
I3304
sV22559
p8027
I1711
sV61422
p8028
I7171
sV61421
p8029
I7170
sV22553
p8030
I1710
sV22552
p8031
I1709
sV61425
p8032
I7172
sV4114
p8033
I4267
sV4113
p8034
I4263
sV31083
p8035
I2882
sV4111
p8036
I4260
sV26427
p8037
I2274
sV26422
p8038
I2273
sV28159
p8039
I2525
sV38300
p8040
I3814
sV32417
p8041
I3061
sV28152
p8042
I2524
sV56168
p8043
I6423
sV56167
p8044
I6422
sV31881
p8045
I2988
sV23797
p8046
I1918
sV23794
p8047
I1917
sV5942
p8048
I6875
sV11507
p8049
I265
sV11505
p8050
I264
sV23798
p8051
I1919
sV23799
p8052
I1920
sV51739
p8053
I5801
sV27085
p8054
I2385
sV53707
p8055
I6086
sV51221
p8056
I5719
sV51220
p8057
I5718
sV58040
p8058
I6666
sV56709
p8059
I6504
sV60554
p8060
I7027
sV56704
p8061
I6503
sV10733
p8062
I141
sV25799
p8063
I2217
sV25795
p8064
I2216
sV25792
p8065
I2215
sV42951
p8066
I4529
sV65797
p8067
I7787
sV9171
p8068
I8510
sV27337
p8069
I2420
sV27331
p8070
I2419
sV45486
p8071
I4867
sV45487
p8072
I4868
sV25249
p8073
I2124
sV36083
p8074
I3513
sV46281
p8075
I4964
sV17217
p8076
I1019
sV17210
p8077
I1018
sV52429
p8078
I5896
sV10073
p8079
I11
sV10072
p8080
I10
sV36884
p8081
I3611
sV10074
p8082
I12
sV10079
p8083
I13
sV9218
p8084
I8523
sV9212
p8085
I8518
sV9213
p8086
I8519
sV9210
p8087
I8516
sV9211
p8088
I8517
sV9216
p8089
I8521
sV9217
p8090
I8522
sV9214
p8091
I8520
sV33103
p8092
I3165
sV12363
p8093
I377
sV33104
p8094
I3166
sV12360
p8095
I376
sV12368
p8096
I378
sV45157
p8097
I4819
sV36324
p8098
I3549
sV45158
p8099
I4820
sV45159
p8100
I4821
sV44287
p8101
I4686
sV10299
p8102
I59
sV10298
p8103
I58
sV10295
p8104
I57
sV53481
p8105
I6050
sV9078
p8106
I8498
sV44288
p8107
I4687
sV46824
p8108
I5051
sV21563
p8109
I1571
sV49340
p8110
I5429
sV46823
p8111
I5050
sV63396
p8112
I7434
sV21568
p8113
I1572
sV68423
p8114
I8152
sV41479
p8115
I4328
sV41477
p8116
I4327
sV49110
p8117
I5388
sV60861
p8118
I7072
sV29859
p8119
I2711
sV44467
p8120
I4712
sV40709
p8121
I4201
sV40700
p8122
I4200
sV58257
p8123
I6699
sV58704
p8124
I6759
sV58703
p8125
I6758
sV58702
p8126
I6757
sV24300
p8127
I1997
sV24304
p8128
I1998
sV58709
p8129
I6760
sV38682
p8130
I3864
sV50360
p8131
I5571
sV32264
p8132
I3042
sV5304
p8133
I5990
sV13016
p8134
I469
sV13017
p8135
I470
sV30451
p8136
I2781
sV30453
p8137
I2782
sV45850
p8138
I4923
sV31271
p8139
I2907
sV3142
p8140
I2925
sV33810
p8141
I3238
sV29983
p8142
I2728
sV62741
p8143
I7341
sV62049
p8144
I7243
sV67282
p8145
I8005
sV20211
p8146
I1386
sV62045
p8147
I7241
sV62044
p8148
I7240
sV20218
p8149
I1387
sV62046
p8150
I7242
sV28054
p8151
I2510
sV31416
p8152
I2924
sV5779
p8153
I6645
sV5778
p8154
I6642
sV23549
p8155
I1870
sV23543
p8156
I1867
sV23545
p8157
I1869
sV23544
p8158
I1868
sV59077
p8159
I6811
sV61637
p8160
I7200
sV27652
p8161
I2448
sV61635
p8162
I7199
sV59078
p8163
I6812
sV67494
p8164
I8028
sV67497
p8165
I8030
sV67496
p8166
I8029
sV67493
p8167
I8027
sV23324
p8168
I1838
sV58086
p8169
I6672
sV40154
p8170
I4111
sV23328
p8171
I1839
sV42821
p8172
I4507
sV43345
p8173
I4573
sV12561
p8174
I409
sV12563
p8175
I410
sV35750
p8176
I3487
sV48780
p8177
I5337
sV7417
p8178
I8261
sV65309
p8179
I7712
sV32992
p8180
I3148
sV16535
p8181
I908
sV64835
p8182
I7631
sV6613
p8183
I7829
sV6610
p8184
I7828
sV6614
p8185
I7831
sV10840
p8186
I157
sV32295
p8187
I3050
sV56571
p8188
I6481
sV10849
p8189
I158
sV50636
p8190
I5613
sV60948
p8191
I7095
sV68147
p8192
I8110
sV60945
p8193
I7094
sV60942
p8194
I7093
sV60940
p8195
I7091
sV60941
p8196
I7092
sV19528
p8197
I1300
sV19521
p8198
I1299
sV22057
p8199
I1644
sV12190
p8200
I343
sV12193
p8201
I344
sV12194
p8202
I345
sV61896
p8203
I7229
sV22058
p8204
I1645
sV25496
p8205
I2172
sV43396
p8206
I4581
sV43425
p8207
I4582
sV25493
p8208
I2171
sV43393
p8209
I4580
sV12697
p8210
I429
sV21978
p8211
I1626
sV46344
p8212
I4973
sV46346
p8213
I4974
sV21793
p8214
I1607
sV46343
p8215
I4972
sV56393
p8216
I6457
sV17667
p8217
I1069
sV2121
p8218
I1524
sV2123
p8219
I1525
sV2125
p8220
I1529
sV2124
p8221
I1526
sV2127
p8222
I1532
sV2128
p8223
I1533
sV13577
p8224
I542
sV4912
p8225
I5390
sV15355
p8226
I760
sV4911
p8227
I5387
sV57628
p8228
I6627
sV30903
p8229
I2846
sV53102
p8230
I6001
sV57626
p8231
I6626
sV53105
p8232
I6002
sV62544
p8233
I7306
sV62546
p8234
I7307
sV62541
p8235
I7305
sV58133
p8236
I6677
sV58135
p8237
I6678
sV64064
p8238
I7521
sV136
p8239
I546
sV64063
p8240
I7520
sV64069
p8241
I7523
sV64068
p8242
I7522
sV20773
p8243
I1455
sV36472
p8244
I3565
sV6835
p8245
I8142
sV56270
p8246
I6442
sV60762
p8247
I7057
sV48823
p8248
I5341
sV6834
p8249
I8141
sV30909
p8250
I2850
sV9681
p8251
I8586
sV15358
p8252
I762
sV9686
p8253
I8587
sV62725
p8254
I7338
sV20519
p8255
I1416
sV41398
p8256
I4310
sV41392
p8257
I4308
sV41395
p8258
I4309
sV44614
p8259
I4737
sV7255
p8260
I8234
sV7256
p8261
I8235
sV7257
p8262
I8236
sV7250
p8263
I8233
sV44618
p8264
I4738
sV58588
p8265
I6740
sV41137
p8266
I4265
sV41135
p8267
I4264
sV48773
p8268
I5333
sV10550
p8269
I108
sV6859
p8270
I8174
sV48779
p8271
I5335
sV48778
p8272
I5334
sV29334
p8273
I2671
sV29335
p8274
I2672
sV33317
p8275
I3199
sV33316
p8276
I3198
sV33315
p8277
I3197
sV31503
p8278
I2941
sV14295
p8279
I615
sV18247
p8280
I1150
sV14297
p8281
I616
sV8803
p8282
I8460
sV49143
p8283
I5393
sV18248
p8284
I1151
sV14929
p8285
I700
sV6583
p8286
I7794
sV6582
p8287
I7792
sV59916
p8288
I6934
sV30846
p8289
I2835
sV30847
p8290
I2836
sV6585
p8291
I7802
sV6584
p8292
I7798
sV8206
p8293
I8372
sV8207
p8294
I8373
sV6589
p8295
I7810
sV59918
p8296
I6935
sV39410
p8297
I4006
sV50815
p8298
I5652
sV50814
p8299
I5651
sV47429
p8300
I5148
sV35606
p8301
I3468
sV44870
p8302
I4780
sV44872
p8303
I4781
sV44873
p8304
I4782
sV40517
p8305
I4166
sV44877
p8306
I4783
sV67802
p8307
I8060
sV40519
p8308
I4167
sV67804
p8309
I8061
sV7820
p8310
I8319
sV47399
p8311
I5141
sV38096
p8312
I3786
sV652
p8313
I7690
sV3088
p8314
I2841
sV38092
p8315
I3785
sV47390
p8316
I5138
sV47391
p8317
I5139
sV47392
p8318
I5140
sV22209
p8319
I1668
sV22202
p8320
I1666
sV22205
p8321
I1667
sV13802
p8322
I572
sV28175
p8323
I2528
sV28179
p8324
I2529
sV18913
p8325
I1227
sV38327
p8326
I3818
sV17965
p8327
I1119
sV55140
p8328
I6276
sV43099
p8329
I4550
sV6700
p8330
I7963
sV43095
p8331
I4549
sV43090
p8332
I4548
sV51240
p8333
I5722
sV51245
p8334
I5723
sV32697
p8335
I3110
sV51246
p8336
I5724
sV51719
p8337
I5799
sV61407
p8338
I7165
sV65126
p8339
I7672
sV65123
p8340
I7671
sV59939
p8341
I6940
sV65121
p8342
I7670
sV65120
p8343
I7669
sV30647
p8344
I2818
sV64658
p8345
I7605
sV60575
p8346
I7029
sV30643
p8347
I2817
sV56097
p8348
I6416
sV56091
p8349
I6415
sV56090
p8350
I6414
sV27352
p8351
I2426
sV27356
p8352
I2428
sV65385
p8353
I7732
sV27355
p8354
I2427
sV25264
p8355
I2126
sV25269
p8356
I2127
sV64477
p8357
I7577
sV65711
p8358
I7779
sV51860
p8359
I5824
sV16279
p8360
I866
sV16278
p8361
I865
sV7648
p8362
I8296
sV42274
p8363
I4420
sV42276
p8364
I4421
sV42277
p8365
I4422
sV52507
p8366
I5910
sV56725
p8367
I6507
sV56728
p8368
I6508
sV62936
p8369
I7381
sV7393
p8370
I8256
sV53715
p8371
I6088
sV36865
p8372
I3610
sV36860
p8373
I3609
sV63009
p8374
I7386
sV57323
p8375
I6586
sV58898
p8376
I6792
sV54843
p8377
I6249
sV54844
p8378
I6250
sV54845
p8379
I6251
sV54846
p8380
I6252
sV64385
p8381
I7562
sV45135
p8382
I4816
sV68288
p8383
I8128
sV44267
p8384
I4684
sV8982
p8385
I8489
sV44262
p8386
I4683
sV32549
p8387
I3084
sV21589
p8388
I1578
sV42859
p8389
I4510
sV46804
p8390
I5047
sV42856
p8391
I4509
sV46808
p8392
I5048
sV17497
p8393
I1048
sV17495
p8394
I1047
sV3579
p8395
I3489
sV68409
p8396
I8150
sV68367
p8397
I8144
sV17499
p8398
I1049
sV13388
p8399
I518
sV13389
p8400
I519
sV2939
p8401
I2678
sV2934
p8402
I2673
sV33789
p8403
I3231
sV18581
p8404
I1194
sV33786
p8405
I3230
sV18585
p8406
I1196
sV18584
p8407
I1195
sV33782
p8408
I3229
sV20183
p8409
I1383
sV57066
p8410
I6549
sV38660
p8411
I3863
sV30478
p8412
I2788
sV68368
p8413
I8145
sV51791
p8414
I5810
sV37806
p8415
I3736
sV11096
p8416
I209
sV11097
p8417
I210
sV18721
p8418
I1213
sV18720
p8419
I1212
sV37800
p8420
I3735
sV11099
p8421
I211
sV17801
p8422
I1089
sV17804
p8423
I1090
sV17806
p8424
I1091
sV33873
p8425
I3244
sV33874
p8426
I3245
sV30783
p8427
I2826
sV46993
p8428
I5086
sV67125
p8429
I7981
sV46995
p8430
I5087
sV67654
p8431
I8045
sV67653
p8432
I8044
sV67652
p8433
I8043
sV23525
p8434
I1862
sV23526
p8435
I1863
sV23529
p8436
I1864
sV66527
p8437
I7892
sV66524
p8438
I7890
sV66525
p8439
I7891
sV66522
p8440
I7889
sV51529
p8441
I5774
sV51520
p8442
I5772
sV43750
p8443
I4624
sV51523
p8444
I5773
sV25856
p8445
I2224
sV43752
p8446
I4626
sV31250
p8447
I2903
sV31251
p8448
I2904
sV41896
p8449
I4379
sV27480
p8450
I2436
sV15265
p8451
I750
sV34570
p8452
I3335
sV48104
p8453
I5265
sV12818
p8454
I439
sV15268
p8455
I751
sV39203
p8456
I3960
sV45750
p8457
I4912
sV20901
p8458
I1479
sV59357
p8459
I6862
sV41415
p8460
I4317
sV50386
p8461
I5576
sV62682
p8462
I7333
sV50435
p8463
I5584
sV50434
p8464
I5583
sV50437
p8465
I5585
sV50924
p8466
I5664
sV50922
p8467
I5663
sV51388
p8468
I5751
sV32206
p8469
I3032
sV16044
p8470
I845
sV32205
p8471
I3031
sV51380
p8472
I5749
sV19091
p8473
I1244
sV19720
p8474
I1313
sV19721
p8475
I1314
sV6639
p8476
I7869
sV22691
p8477
I1734
sV22692
p8478
I1735
sV41413
p8479
I4316
sV26581
p8480
I2302
sV50659
p8481
I5625
sV50658
p8482
I5624
sV24725
p8483
I2051
sV24721
p8484
I2050
sV50653
p8485
I5620
sV50655
p8486
I5621
sV50657
p8487
I5623
sV50656
p8488
I5622
sV21008
p8489
I1492
sV21009
p8490
I1493
sV61212
p8491
I7132
sV65248
p8492
I7700
sV65249
p8493
I7701
sV22077
p8494
I1648
sV58147
p8495
I6680
sV4707
p8496
I5099
sV4704
p8497
I5093
sV2327
p8498
I1827
sV4701
p8499
I5092
sV4700
p8500
I5089
sV2328
p8501
I1828
sV3765
p8502
I3714
sV3766
p8503
I3717
sV3767
p8504
I3721
sV21912
p8505
I1619
sV3769
p8506
I3722
sV21910
p8507
I1617
sV21911
p8508
I1618
sV68009
p8509
I8089
sV46325
p8510
I4969
sV17398
p8511
I1032
sV41804
p8512
I4361
sV17393
p8513
I1031
sV56805
p8514
I6520
sV56803
p8515
I6519
sV56800
p8516
I6517
sV56801
p8517
I6518
sV13559
p8518
I541
sV13558
p8519
I540
sV13552
p8520
I539
sV13550
p8521
I538
sV60295
p8522
I6994
sV68003
p8523
I8086
sV41043
p8524
I4246
sV19893
p8525
I1333
sV57606
p8526
I6622
sV57605
p8527
I6621
sV52121
p8528
I5859
sV5156
p8529
I5778
sV116
p8530
I277
sV60030
p8531
I6953
sV54043
p8532
I6134
sV53387
p8533
I6030
sV36459
p8534
I3564
sV36456
p8535
I3563
sV36323
p8536
I3548
sV36322
p8537
I3547
sV46634
p8538
I5024
sV58814
p8539
I6776
sV46630
p8540
I5022
sV46632
p8541
I5023
sV51989
p8542
I5838
sV49118
p8543
I5389
sV48571
p8544
I5303
sV48570
p8545
I5302
sV20535
p8546
I1419
sV20532
p8547
I1418
sV48577
p8548
I5305
sV48576
p8549
I5304
sV7272
p8550
I8241
sV7273
p8551
I8242
sV35892
p8552
I3498
sV44676
p8553
I4745
sV44674
p8554
I4744
sV66247
p8555
I7852
sV6833
p8556
I8140
sV59600
p8557
I6883
sV6831
p8558
I8132
sV6836
p8559
I8143
sV15896
p8560
I824
sV15897
p8561
I825
sV48795
p8562
I5338
sV41115
p8563
I4261
sV16455
p8564
I894
sV15729
p8565
I810
sV10553
p8566
I109
sV29312
p8567
I2668
sV29319
p8568
I2669
sV53528
p8569
I6065
sV63211
p8570
I7402
sV63216
p8571
I7403
sV63219
p8572
I7404
sV18269
p8573
I1158
sV66998
p8574
I7962
sV18264
p8575
I1156
sV18265
p8576
I1157
sV18910
p8577
I1226
sV30868
p8578
I2838
sV30869
p8579
I2839
sV30648
p8580
I2819
sV15090
p8581
I729
sV30317
p8582
I2761
sV30314
p8583
I2760
sV30863
p8584
I2837
sV30313
p8585
I2759
sV34364
p8586
I3312
sV39439
p8587
I4009
sV30162
p8588
I2748
sV39434
p8589
I4007
sV39437
p8590
I4008
sV62757
p8591
I7347
sV47409
p8592
I5145
sV47400
p8593
I5142
sV47401
p8594
I5143
sV1747
p8595
I1040
sV47406
p8596
I5144
sV1743
p8597
I1037
sV67820
p8598
I8062
sV52055
p8599
I5856
sV67823
p8600
I8064
sV67824
p8601
I8065
sV67826
p8602
I8066
sV67828
p8603
I8067
sV40579
p8604
I4179
sV40578
p8605
I4178
sV35894
p8606
I3499
sV28371
p8607
I2560
sV32500
p8608
I3076
sV14411
p8609
I635
sV7296
p8610
I8244
sV28376
p8611
I2561
sV58496
p8612
I6732
sV6977
p8613
I8201
sV1299
p8614
I466
sV5492
p8615
I6258
sV1292
p8616
I457
sV8484
p8617
I8415
sV1563
p8618
I797
sV39862
p8619
I4065
sV66996
p8620
I7961
sV66995
p8621
I7960
sV10640
p8622
I125
sV35096
p8623
I3412
sV13824
p8624
I573
sV55166
p8625
I6281
sV55167
p8626
I6282
sV55160
p8627
I6278
sV55161
p8628
I6279
sV55162
p8629
I6280
sV28195
p8630
I2531
sV28194
p8631
I2530
sV28197
p8632
I2532
sV50935
p8633
I5665
sV34147
p8634
I3279
sV34143
p8635
I3278
sV34142
p8636
I3277
sV34141
p8637
I3276
sV38341
p8638
I3823
sV34148
p8639
I3280
ssS'num_neg_train_edges'
p8640
I11496
sS'num_neg_test_edges'
p8641
I11496
sS'original_num_nodes'
p8642
I9877
sS'largest_cc_num_nodes'
p8643
I8638
sS'num_pos_test_edges'
p8644
I11496
sS'num_pos_train_edges'
p8645
I13330
s.