(dp1
S'index'
p2
(dp3
V593
p4
I3403
sV3724
p5
I2997
sV3725
p6
I2998
sV3798
p7
I3077
sV643
p8
I3458
sV592
p9
I3402
sV344
p10
I2686
sV345
p11
I2697
sV346
p12
I2708
sV347
p13
I2719
sV340
p14
I2643
sV341
p15
I2653
sV342
p16
I2664
sV343
p17
I2675
sV2918
p18
I2108
sV348
p19
I2730
sV349
p20
I2741
sV3530
p21
I2787
sV2919
p22
I2109
sV512
p23
I3315
sV594
p24
I3404
sV2318
p25
I1448
sV2319
p26
I1449
sV2316
p27
I1446
sV2317
p28
I1447
sV2314
p29
I1444
sV2315
p30
I1445
sV2312
p31
I1442
sV2313
p32
I1443
sV2310
p33
I1440
sV2311
p34
I1441
sV298
p35
I2176
sV299
p36
I2187
sV296
p37
I2154
sV297
p38
I2165
sV294
p39
I2132
sV295
p40
I2143
sV292
p41
I2110
sV293
p42
I2121
sV290
p43
I2088
sV291
p44
I2099
sV3773
p45
I3050
sV3772
p46
I3049
sV3771
p47
I3048
sV3770
p48
I3047
sV3777
p49
I3054
sV3776
p50
I3053
sV3775
p51
I3052
sV3774
p52
I3051
sV3779
p53
I3056
sV3778
p54
I3055
sV270
p55
I1868
sV271
p56
I1879
sV272
p57
I1890
sV273
p58
I1901
sV274
p59
I1912
sV275
p60
I1923
sV276
p61
I1934
sV277
p62
I1945
sV278
p63
I1955
sV279
p64
I1966
sV738
p65
I3563
sV3211
p66
I2435
sV58
p67
I3388
sV581
p68
I3390
sV2268
p69
I1393
sV2269
p70
I1394
sV2262
p71
I1387
sV2263
p72
I1388
sV2260
p73
I1385
sV2261
p74
I1386
sV2266
p75
I1391
sV2267
p76
I1392
sV2264
p77
I1389
sV2265
p78
I1390
sV2442
p79
I1586
sV2443
p80
I1587
sV2440
p81
I1584
sV2441
p82
I1585
sV2446
p83
I1590
sV2447
p84
I1591
sV2444
p85
I1588
sV2445
p86
I1589
sV2448
p87
I1592
sV2449
p88
I1593
sV108
p89
I89
sV109
p90
I100
sV102
p91
I25
sV103
p92
I36
sV100
p93
I3
sV101
p94
I14
sV106
p95
I67
sV107
p96
I78
sV104
p97
I46
sV105
p98
I56
sV2046
p99
I1150
sV2047
p100
I1151
sV2044
p101
I1148
sV2045
p102
I1149
sV2042
p103
I1146
sV2043
p104
I1147
sV2040
p105
I1144
sV2041
p106
I1145
sV2048
p107
I1152
sV2049
p108
I1153
sV3150
p109
I2367
sV3155
p110
I2372
sV3154
p111
I2371
sV3238
p112
I2464
sV2836
p113
I2018
sV3159
p114
I2376
sV752
p115
I3579
sV3519
p116
I2774
sV3158
p117
I2375
sV3513
p118
I2768
sV3512
p119
I2767
sV3511
p120
I2766
sV3510
p121
I2765
sV3517
p122
I2772
sV3239
p123
I2465
sV3515
p124
I2770
sV3514
p125
I2769
sV2688
p126
I1854
sV2689
p127
I1855
sV2684
p128
I1850
sV2685
p129
I1851
sV2686
p130
I1852
sV2687
p131
I1853
sV2680
p132
I1846
sV2681
p133
I1847
sV2682
p134
I1848
sV2683
p135
I1849
sV3391
p136
I2633
sV3390
p137
I2632
sV3393
p138
I2635
sV99
p139
I3841
sV98
p140
I3830
sV3019
p141
I2221
sV91
p142
I3753
sV3395
p143
I2637
sV93
p144
I3775
sV92
p145
I3764
sV95
p146
I3797
sV94
p147
I3786
sV97
p148
I3819
sV3394
p149
I2636
sV1991
p150
I1090
sV1622
p151
I686
sV1621
p152
I685
sV1620
p153
I684
sV1627
p154
I691
sV1994
p155
I1093
sV1625
p156
I689
sV1624
p157
I688
sV1999
p158
I1098
sV1998
p159
I1097
sV1629
p160
I693
sV1628
p161
I692
sV3209
p162
I2432
sV3208
p163
I2431
sV3013
p164
I2215
sV2860
p165
I2044
sV2861
p166
I2045
sV2862
p167
I2046
sV2863
p168
I2047
sV2864
p169
I2048
sV2865
p170
I2049
sV2866
p171
I2050
sV2867
p172
I2051
sV2868
p173
I2052
sV2869
p174
I2053
sV557
p175
I3363
sV556
p176
I3362
sV551
p177
I3357
sV550
p178
I3356
sV553
p179
I3359
sV552
p180
I3358
sV3015
p181
I2217
sV1199
p182
I218
sV1198
p183
I217
sV3348
p184
I2585
sV3349
p185
I2586
sV1191
p186
I210
sV1190
p187
I209
sV1193
p188
I212
sV1192
p189
I211
sV1195
p190
I214
sV1194
p191
I213
sV1197
p192
I216
sV1196
p193
I215
sV873
p194
I3712
sV1759
p195
I836
sV1758
p196
I835
sV1757
p197
I834
sV1756
p198
I833
sV1755
p199
I832
sV1754
p200
I831
sV1753
p201
I830
sV1752
p202
I829
sV1751
p203
I828
sV1750
p204
I827
sV1177
p205
I194
sV1176
p206
I193
sV1175
p207
I192
sV1174
p208
I191
sV1173
p209
I190
sV1172
p210
I189
sV1170
p211
I188
sV1179
p212
I196
sV1178
p213
I195
sV511
p214
I3314
sV2964
p215
I2159
sV510
p216
I3313
sV513
p217
I3316
sV644
p218
I3459
sV1285
p219
I312
sV1284
p220
I311
sV1287
p221
I314
sV1286
p222
I313
sV1281
p223
I308
sV1280
p224
I307
sV1283
p225
I310
sV1282
p226
I309
sV515
p227
I3318
sV879
p228
I3718
sV1289
p229
I316
sV1288
p230
I315
sV3668
p231
I2934
sV876
p232
I3715
sV1579
p233
I638
sV1578
p234
I637
sV689
p235
I3508
sV517
p236
I3320
sV877
p237
I3716
sV1573
p238
I632
sV1572
p239
I631
sV1571
p240
I630
sV1570
p241
I629
sV1577
p242
I636
sV1576
p243
I635
sV1575
p244
I634
sV1574
p245
I633
sV662
p246
I3479
sV458
p247
I3255
sV875
p248
I3714
sV819
p249
I3652
sV459
p250
I3256
sV872
p251
I3711
sV621
p252
I3435
sV3435
p253
I2681
sV620
p254
I3434
sV870
p255
I3709
sV627
p256
I3441
sV871
p257
I3710
sV626
p258
I3440
sV2741
p259
I1914
sV625
p260
I3439
sV2740
p261
I1913
sV624
p262
I3438
sV759
p263
I3586
sV2743
p264
I1916
sV1371
p265
I408
sV1370
p266
I407
sV1373
p267
I410
sV1372
p268
I409
sV1375
p269
I412
sV1374
p270
I411
sV1377
p271
I414
sV1376
p272
I413
sV1379
p273
I416
sV1378
p274
I415
sV452
p275
I3249
sV409
p276
I3201
sV2744
p277
I1917
sV3834
p278
I3118
sV3835
p279
I3119
sV3836
p280
I3120
sV3837
p281
I3121
sV3830
p282
I3114
sV3831
p283
I3115
sV3832
p284
I3116
sV3833
p285
I3117
sV454
p286
I3251
sV758
p287
I3585
sV2746
p288
I1919
sV3838
p289
I3122
sV3839
p290
I3123
sV455
p291
I3252
sV3207
p292
I2430
sV456
p293
I3253
sV2748
p294
I1921
sV457
p295
I3254
sV3206
p296
I2429
sV379
p297
I3068
sV378
p298
I3057
sV371
p299
I2981
sV370
p300
I2970
sV373
p301
I3003
sV372
p302
I2992
sV375
p303
I3025
sV374
p304
I3014
sV377
p305
I3046
sV376
p306
I3036
sV403
p307
I3195
sV3093
p308
I2303
sV3205
p309
I2428
sV393
p310
I3184
sV392
p311
I3183
sV391
p312
I3182
sV390
p313
I3181
sV397
p314
I3187
sV396
p315
I3186
sV394
p316
I3185
sV399
p317
I3189
sV398
p318
I3188
sV3593
p319
I2853
sV895
p320
I3736
sV2309
p321
I1438
sV2308
p322
I1437
sV2301
p323
I1430
sV2300
p324
I1429
sV2303
p325
I1432
sV2302
p326
I1431
sV2305
p327
I1434
sV2304
p328
I1433
sV2307
p329
I1436
sV2306
p330
I1435
sV3592
p331
I2852
sV653
p332
I3469
sV3748
p333
I3023
sV3749
p334
I3024
sV3746
p335
I3021
sV3203
p336
I2426
sV3744
p337
I3019
sV3745
p338
I3020
sV3742
p339
I3017
sV3743
p340
I3018
sV3740
p341
I3015
sV3741
p342
I3016
sV245
p343
I1594
sV244
p344
I1583
sV247
p345
I1615
sV241
p346
I1550
sV240
p347
I1539
sV243
p348
I1572
sV242
p349
I1561
sV3591
p350
I2851
sV249
p351
I1637
sV248
p352
I1626
sV2275
p353
I1401
sV2274
p354
I1400
sV2277
p355
I1403
sV2276
p356
I1402
sV2271
p357
I1397
sV2270
p358
I1396
sV2273
p359
I1399
sV2272
p360
I1398
sV2279
p361
I1405
sV2278
p362
I1404
sV972
p363
I3822
sV2459
p364
I1604
sV2458
p365
I1603
sV2455
p366
I1600
sV2454
p367
I1599
sV2457
p368
I1602
sV2456
p369
I1601
sV2451
p370
I1596
sV2450
p371
I1595
sV2453
p372
I1598
sV2452
p373
I1597
sV179
p374
I870
sV178
p375
I859
sV177
p376
I848
sV176
p377
I837
sV175
p378
I826
sV174
p379
I815
sV173
p380
I805
sV172
p381
I794
sV171
p382
I783
sV170
p383
I772
sV2051
p384
I1156
sV2050
p385
I1155
sV2053
p386
I1158
sV2052
p387
I1157
sV2055
p388
I1160
sV2054
p389
I1159
sV2057
p390
I1162
sV2056
p391
I1161
sV2059
p392
I1164
sV2058
p393
I1163
sV3692
p394
I2961
sV3693
p395
I2962
sV3694
p396
I2963
sV3695
p397
I2964
sV3696
p398
I2965
sV3697
p399
I2966
sV970
p400
I3820
sV655
p401
I3471
sV3089
p402
I2298
sV3088
p403
I2297
sV3226
p404
I2451
sV651
p405
I3467
sV3526
p406
I2782
sV3527
p407
I2783
sV3524
p408
I2780
sV3525
p409
I2781
sV3522
p410
I2778
sV3523
p411
I2779
sV3520
p412
I2776
sV3521
p413
I2777
sV3087
p414
I2296
sV3528
p415
I2784
sV3529
p416
I2785
sV3086
p417
I2295
sV338
p418
I2620
sV225
p419
I1374
sV1601
p420
I663
sV658
p421
I3474
sV2699
p422
I1866
sV1600
p423
I662
sV2697
p424
I1864
sV2696
p425
I1863
sV2695
p426
I1862
sV2694
p427
I1861
sV2693
p428
I1860
sV1603
p429
I665
sV2691
p430
I1858
sV2690
p431
I1857
sV1602
p432
I664
sV1973
p433
I1070
sV1604
p434
I666
sV1607
p435
I669
sV1606
p436
I668
sV3232
p437
I2458
sV3233
p438
I2459
sV3230
p439
I2456
sV3231
p440
I2457
sV1968
p441
I1064
sV1969
p442
I1065
sV1618
p443
I681
sV1619
p444
I682
sV1616
p445
I679
sV1617
p446
I680
sV1614
p447
I677
sV1615
p448
I678
sV1960
p449
I1056
sV1961
p450
I1057
sV1610
p451
I673
sV1611
p452
I674
sV3650
p453
I2915
sV714
p454
I3537
sV2873
p455
I2058
sV2872
p456
I2057
sV2871
p457
I2056
sV2870
p458
I2055
sV2877
p459
I2062
sV2876
p460
I2061
sV2875
p461
I2060
sV2542
p462
I1694
sV2879
p463
I2064
sV2878
p464
I2063
sV3355
p465
I2593
sV3354
p466
I2592
sV3357
p467
I2595
sV3356
p468
I2594
sV3351
p469
I2589
sV3350
p470
I2588
sV3353
p471
I2591
sV3352
p472
I2590
sV3359
p473
I2597
sV3358
p474
I2596
sV3781
p475
I3059
sV2544
p476
I1696
sV1768
p477
I846
sV1769
p478
I847
sV1762
p479
I840
sV1763
p480
I841
sV1760
p481
I838
sV1761
p482
I839
sV1766
p483
I844
sV1767
p484
I845
sV1764
p485
I842
sV1765
p486
I843
sV1142
p487
I158
sV1143
p488
I159
sV1140
p489
I156
sV1141
p490
I157
sV1146
p491
I162
sV1147
p492
I163
sV1144
p493
I160
sV1145
p494
I161
sV1148
p495
I164
sV1149
p496
I165
sV768
p497
I3596
sV2966
p498
I2161
sV690
p499
I3510
sV336
p500
I2598
sV3787
p501
I3065
sV1546
p502
I602
sV1547
p503
I603
sV1544
p504
I600
sV1545
p505
I601
sV1542
p506
I598
sV1543
p507
I599
sV1540
p508
I596
sV1541
p509
I597
sV698
p510
I3518
sV699
p511
I3519
sV1548
p512
I604
sV1549
p513
I605
sV542
p514
I3348
sV543
p515
I3349
sV540
p516
I3346
sV2382
p517
I1519
sV546
p518
I3352
sV547
p519
I3353
sV544
p520
I3350
sV1781
p521
I861
sV3784
p522
I3062
sV548
p523
I3354
sV549
p524
I3355
sV760
p525
I3588
sV3885
p526
I3174
sV761
p527
I3589
sV400
p528
I3192
sV2969
p529
I2164
sV2968
p530
I2163
sV764
p531
I3592
sV2388
p532
I1525
sV765
p533
I3593
sV9
I3741
sV414
p534
I3207
sV415
p535
I3208
sV416
p536
I3209
sV417
p537
I3210
sV1388
p538
I426
sV1389
p539
I427
sV412
p540
I3205
sV413
p541
I3206
sV1384
p542
I422
sV1385
p543
I423
sV1386
p544
I424
sV1387
p545
I425
sV1380
p546
I418
sV1381
p547
I419
sV1382
p548
I420
sV1383
p549
I421
sV3827
p550
I3110
sV3826
p551
I3109
sV3825
p552
I3108
sV3824
p553
I3107
sV3823
p554
I3106
sV3822
p555
I3105
sV3821
p556
I3104
sV3820
p557
I3103
sV3582
p558
I2841
sV3829
p559
I3112
sV3828
p560
I3111
sV3583
p561
I2842
sV1254
p562
I279
sV3585
p563
I2844
sV681
p564
I3500
sV3042
p565
I2247
sV3587
p566
I2846
sV3588
p567
I2847
sV368
p568
I2947
sV3589
p569
I2848
sV366
p570
I2925
sV367
p571
I2936
sV364
p572
I2903
sV365
p573
I2914
sV360
p574
I2861
sV3214
p575
I2438
sV2760
p576
I1935
sV3202
p577
I2425
sV380
p578
I3080
sV381
p579
I3091
sV382
p580
I3102
sV383
p581
I3113
sV384
p582
I3124
sV385
p583
I3135
sV386
p584
I3146
sV387
p585
I3157
sV388
p586
I3168
sV389
p587
I3179
sV3215
p588
I2439
sV3216
p589
I2440
sV3759
p590
I3035
sV3758
p591
I3034
sV622
p592
I3436
sV3751
p593
I3027
sV3750
p594
I3026
sV3753
p595
I3029
sV3752
p596
I3028
sV3755
p597
I3031
sV3754
p598
I3030
sV3757
p599
I3033
sV3756
p600
I3032
sV2190
p601
I1309
sV2191
p602
I1310
sV2192
p603
I1311
sV2193
p604
I1312
sV2194
p605
I1313
sV2195
p606
I1314
sV2196
p607
I1315
sV2197
p608
I1316
sV2198
p609
I1317
sV2199
p610
I1318
sV250
p611
I1648
sV251
p612
I1659
sV256
p613
I1712
sV257
p614
I1723
sV254
p615
I1691
sV255
p616
I1702
sV2200
p617
I1321
sV2201
p618
I1322
sV2202
p619
I1323
sV2203
p620
I1324
sV2204
p621
I1325
sV2205
p622
I1326
sV2206
p623
I1327
sV2207
p624
I1328
sV2208
p625
I1329
sV2209
p626
I1330
sV96
p627
I3808
sV3210
p628
I2434
sV680
p629
I3499
sV2428
p630
I1570
sV2429
p631
I1571
sV2420
p632
I1562
sV2421
p633
I1563
sV2422
p634
I1564
sV2423
p635
I1565
sV2424
p636
I1566
sV2425
p637
I1567
sV2426
p638
I1568
sV2427
p639
I1569
sV901
p640
I3744
sV168
p641
I749
sV169
p642
I760
sV164
p643
I705
sV165
p644
I716
sV166
p645
I727
sV167
p646
I738
sV160
p647
I661
sV161
p648
I672
sV162
p649
I683
sV163
p650
I694
sV862
p651
I3700
sV3689
p652
I2957
sV3688
p653
I2956
sV3683
p654
I2951
sV3682
p655
I2950
sV3681
p656
I2949
sV3680
p657
I2948
sV3687
p658
I2955
sV3686
p659
I2954
sV3685
p660
I2953
sV3684
p661
I2952
sV3257
p662
I2485
sV3212
p663
I2436
sV2518
p664
I1668
sV2519
p665
I1669
sV2514
p666
I1664
sV2515
p667
I1665
sV2516
p668
I1666
sV2517
p669
I1667
sV2510
p670
I1660
sV2511
p671
I1661
sV2512
p672
I1662
sV2513
p673
I1663
sV2734
p674
I1906
sV2735
p675
I1907
sV2736
p676
I1908
sV2737
p677
I1909
sV2730
p678
I1902
sV2731
p679
I1903
sV2732
p680
I1904
sV2733
p681
I1905
sV2738
p682
I1910
sV2739
p683
I1911
sV3531
p684
I2788
sV3213
p685
I2437
sV3533
p686
I2790
sV3532
p687
I2789
sV3535
p688
I2792
sV3534
p689
I2791
sV3537
p690
I2794
sV3536
p691
I2793
sV3539
p692
I2796
sV3538
p693
I2795
sV609
p694
I3421
sV1814
p695
I897
sV1815
p696
I898
sV1816
p697
I899
sV1817
p698
I900
sV1810
p699
I893
sV1811
p700
I894
sV1812
p701
I895
sV1813
p702
I896
sV1093
p703
I103
sV1818
p704
I901
sV1819
p705
I902
sV646
p706
I3461
sV670
p707
I3488
sV2795
p708
I1972
sV671
p709
I3489
sV1609
p710
I671
sV1608
p711
I670
sV3229
p712
I2454
sV3228
p713
I2453
sV1979
p714
I1076
sV1978
p715
I1075
sV1977
p716
I1074
sV1976
p717
I1073
sV1975
p718
I1072
sV1974
p719
I1071
sV1605
p720
I667
sV1972
p721
I1069
sV1971
p722
I1068
sV1970
p723
I1067
sV809
p724
I3641
sV808
p725
I3640
sV803
p726
I3635
sV802
p727
I3634
sV801
p728
I3633
sV800
p729
I3632
sV807
p730
I3639
sV806
p731
I3638
sV805
p732
I3637
sV804
p733
I3636
sV2848
p734
I2031
sV2849
p735
I2032
sV2846
p736
I2029
sV2847
p737
I2030
sV2844
p738
I2027
sV2845
p739
I2028
sV2842
p740
I2025
sV2843
p741
I2026
sV2840
p742
I2023
sV2841
p743
I2024
sV3320
p744
I2555
sV3321
p745
I2556
sV3322
p746
I2557
sV3323
p747
I2558
sV3324
p748
I2559
sV3325
p749
I2560
sV3326
p750
I2561
sV3327
p751
I2562
sV3328
p752
I2563
sV3329
p753
I2564
sV1775
p754
I854
sV1774
p755
I853
sV1777
p756
I856
sV1776
p757
I855
sV1771
p758
I850
sV1770
p759
I849
sV1773
p760
I852
sV1772
p761
I851
sV1779
p762
I858
sV1778
p763
I857
sV608
p764
I3420
sV2998
p765
I2196
sV1159
p766
I176
sV1158
p767
I175
sV2999
p768
I2197
sV1155
p769
I172
sV1154
p770
I171
sV1157
p771
I174
sV1156
p772
I173
sV1151
p773
I168
sV1150
p774
I167
sV1153
p775
I170
sV1152
p776
I169
sV3038
p777
I2242
sV3039
p778
I2243
sV1551
p779
I608
sV1550
p780
I607
sV1553
p781
I610
sV1552
p782
I609
sV1555
p783
I612
sV1554
p784
I611
sV1557
p785
I614
sV1556
p786
I613
sV1559
p787
I616
sV1558
p788
I615
sV2992
p789
I2190
sV2993
p790
I2191
sV2994
p791
I2192
sV2995
p792
I2193
sV2996
p793
I2194
sV2997
p794
I2195
sV537
p795
I3342
sV2990
p796
I2188
sV535
p797
I3340
sV534
p798
I3339
sV533
p799
I3338
sV532
p800
I3337
sV531
p801
I3336
sV2991
p802
I2189
sV3036
p803
I2240
sV539
p804
I3344
sV3299
p805
I2531
sV3037
p806
I2241
sV3030
p807
I2234
sV3541
p808
I2799
sV3031
p809
I2235
sV3294
p810
I2526
sV36
p811
I2860
sV3032
p812
I2236
sV3295
p813
I2527
sV3033
p814
I2237
sV3296
p815
I2528
sV3297
p816
I2529
sV909
p817
I3752
sV536
p818
I3341
sV3290
p819
I2522
sV3291
p820
I2523
sV429
p821
I3223
sV428
p822
I3222
sV1399
p823
I438
sV1398
p824
I437
sV1397
p825
I436
sV1396
p826
I435
sV1395
p827
I434
sV1394
p828
I433
sV1393
p829
I432
sV1392
p830
I431
sV1391
p831
I430
sV1390
p832
I429
sV3812
p833
I3094
sV3813
p834
I3095
sV3810
p835
I3092
sV3811
p836
I3093
sV3816
p837
I3098
sV3817
p838
I3099
sV3814
p839
I3096
sV3815
p840
I3097
sV3818
p841
I3100
sV3819
p842
I3101
sV856
p843
I3693
sV3518
p844
I2773
sV850
p845
I3687
sV851
p846
I3688
sV852
p847
I3689
sV853
p848
I3690
sV538
p849
I3343
sV3516
p850
I2771
sV1321
p851
I353
sV2183
p852
I1301
sV2182
p853
I1300
sV2181
p854
I1299
sV2180
p855
I1298
sV2187
p856
I1305
sV2186
p857
I1304
sV2185
p858
I1303
sV2184
p859
I1302
sV227
p860
I1395
sV226
p861
I1384
sV2189
p862
I1307
sV224
p863
I1363
sV223
p864
I1352
sV222
p865
I1342
sV221
p866
I1331
sV220
p867
I1320
sV2213
p868
I1335
sV2212
p869
I1334
sV2211
p870
I1333
sV2210
p871
I1332
sV2217
p872
I1339
sV2216
p873
I1338
sV2215
p874
I1337
sV2214
p875
I1336
sV2219
p876
I1341
sV2218
p877
I1340
sV763
p878
I3591
sV151
p879
I562
sV150
p880
I551
sV153
p881
I584
sV152
p882
I573
sV155
p883
I606
sV154
p884
I595
sV157
p885
I628
sV156
p886
I617
sV159
p887
I650
sV158
p888
I639
sV2431
p889
I1574
sV2430
p890
I1573
sV2437
p891
I1580
sV2436
p892
I1579
sV2435
p893
I1578
sV2434
p894
I1577
sV976
p895
I3826
sV2509
p896
I1658
sV2508
p897
I1657
sV2507
p898
I1656
sV2506
p899
I1655
sV2505
p900
I1654
sV2504
p901
I1653
sV2503
p902
I1652
sV2502
p903
I1651
sV2501
p904
I1650
sV2500
p905
I1649
sV2727
p906
I1898
sV2726
p907
I1897
sV2725
p908
I1896
sV2724
p909
I1895
sV2723
p910
I1894
sV2722
p911
I1893
sV2721
p912
I1892
sV2720
p913
I1891
sV2729
p914
I1900
sV2728
p915
I1899
sV1807
p916
I889
sV1806
p917
I888
sV1805
p918
I887
sV1804
p919
I886
sV3786
p920
I3064
sV1802
p921
I885
sV1801
p922
I884
sV1800
p923
I883
sV3788
p924
I3066
sV3789
p925
I3067
sV1809
p926
I891
sV1808
p927
I890
sV3473
p928
I2723
sV90
p929
I3742
sV632
p930
I3447
sV3710
p931
I2982
sV3258
p932
I2486
sV1256
p933
I281
sV1948
p934
I1042
sV1949
p935
I1043
sV1257
p936
I282
sV1942
p937
I1036
sV1943
p938
I1037
sV1940
p939
I1034
sV1941
p940
I1035
sV1946
p941
I1040
sV1947
p942
I1041
sV1944
p943
I1038
sV1945
p944
I1039
sV818
p945
I3651
sV0
I0
sV1255
p946
I280
sV810
p947
I3643
sV1252
p948
I277
sV812
p949
I3645
sV813
p950
I3646
sV814
p951
I3647
sV815
p952
I3648
sV816
p953
I3649
sV1253
p954
I278
sV2859
p955
I2042
sV1623
p956
I687
sV3495
p957
I2747
sV1250
p958
I275
sV1990
p959
I1089
sV2851
p960
I2034
sV2853
p961
I2036
sV1251
p962
I276
sV2855
p963
I2038
sV1993
p964
I1092
sV2857
p965
I2040
sV2856
p966
I2039
sV1490
p967
I540
sV1491
p968
I541
sV1492
p969
I542
sV1493
p970
I543
sV1494
p971
I544
sV1495
p972
I545
sV1496
p973
I546
sV1497
p974
I547
sV1498
p975
I548
sV1499
p976
I549
sV3339
p977
I2575
sV3338
p978
I2574
sV423
p979
I3217
sV1626
p980
I690
sV1700
p981
I773
sV1701
p982
I774
sV1702
p983
I775
sV1703
p984
I776
sV1704
p985
I777
sV1705
p986
I778
sV1706
p987
I779
sV1707
p988
I780
sV1708
p989
I781
sV1709
p990
I782
sV1996
p991
I1095
sV424
p992
I3218
sV892
p993
I3733
sV427
p994
I3221
sV3217
p995
I2441
sV426
p996
I3220
sV3659
p997
I2924
sV1128
p998
I142
sV1129
p999
I143
sV1120
p1000
I134
sV1121
p1001
I135
sV1122
p1002
I136
sV1123
p1003
I137
sV1124
p1004
I138
sV1125
p1005
I139
sV1126
p1006
I140
sV1127
p1007
I141
sV2989
p1008
I2186
sV2988
p1009
I2185
sV3029
p1010
I2232
sV3028
p1011
I2231
sV2983
p1012
I2180
sV2982
p1013
I2179
sV2981
p1014
I2178
sV2980
p1015
I2177
sV2987
p1016
I2184
sV2986
p1017
I2183
sV2985
p1018
I2182
sV2984
p1019
I2181
sV524
p1020
I3328
sV525
p1021
I3329
sV526
p1022
I3330
sV527
p1023
I3331
sV1018
p1024
I23
sV1019
p1025
I24
sV522
p1026
I3326
sV523
p1027
I3327
sV1014
p1028
I19
sV1015
p1029
I20
sV1016
p1030
I21
sV1017
p1031
I22
sV1010
p1032
I15
sV1011
p1033
I16
sV1012
p1034
I17
sV1013
p1035
I18
sV1234
p1036
I257
sV1235
p1037
I258
sV1236
p1038
I259
sV1237
p1039
I260
sV1230
p1040
I253
sV1231
p1041
I254
sV1232
p1042
I255
sV1233
p1043
I256
sV1238
p1044
I261
sV1239
p1045
I262
sV2526
p1046
I1677
sV438
p1047
I3233
sV439
p1048
I3234
sV436
p1049
I3231
sV437
p1050
I3232
sV434
p1051
I3229
sV435
p1052
I3230
sV432
p1053
I3227
sV433
p1054
I3228
sV2830
p1055
I2012
sV431
p1056
I3226
sV3809
p1057
I3090
sV3808
p1058
I3089
sV3805
p1059
I3086
sV3804
p1060
I3085
sV3807
p1061
I3088
sV3806
p1062
I3087
sV3801
p1063
I3082
sV3800
p1064
I3081
sV3803
p1065
I3084
sV3802
p1066
I3083
sV473
p1067
I3272
sV559
p1068
I3365
sV558
p1069
I3364
sV747
p1070
I3573
sV555
p1071
I3361
sV3162
p1072
I2380
sV554
p1073
I3360
sV51
p1074
I3312
sV3163
p1075
I2381
sV3160
p1076
I2378
sV3060
p1077
I2267
sV995
p1078
I3847
sV3065
p1079
I2272
sV994
p1080
I3846
sV3064
p1081
I2271
sV997
p1082
I3849
sV3161
p1083
I2379
sV996
p1084
I3848
sV238
p1085
I1516
sV239
p1086
I1527
sV234
p1087
I1472
sV235
p1088
I1483
sV236
p1089
I1494
sV237
p1090
I1505
sV230
p1091
I1428
sV231
p1092
I1439
sV232
p1093
I1450
sV233
p1094
I1461
sV3068
p1095
I2275
sV993
p1096
I3845
sV2228
p1097
I1350
sV2229
p1098
I1351
sV2226
p1099
I1349
sV2224
p1100
I1347
sV2225
p1101
I1348
sV2222
p1102
I1345
sV2223
p1103
I1346
sV2220
p1104
I1343
sV2221
p1105
I1344
sV1
I1
sV2707
p1106
I1876
sV146
p1107
I506
sV147
p1108
I517
sV144
p1109
I484
sV145
p1110
I495
sV142
p1111
I462
sV143
p1112
I473
sV140
p1113
I440
sV141
p1114
I451
sV708
p1115
I3530
sV148
p1116
I528
sV149
p1117
I539
sV50
p1118
I3302
sV3401
p1119
I2645
sV2088
p1120
I1195
sV2089
p1121
I1196
sV3400
p1122
I2644
sV2082
p1123
I1189
sV2083
p1124
I1190
sV2080
p1125
I1188
sV2086
p1126
I1193
sV2087
p1127
I1194
sV2084
p1128
I1191
sV2085
p1129
I1192
sV3342
p1130
I2579
sV2538
p1131
I1689
sV2539
p1132
I1690
sV3343
p1133
I2580
sV2532
p1134
I1684
sV2533
p1135
I1685
sV2530
p1136
I1682
sV2531
p1137
I1683
sV2537
p1138
I1688
sV2534
p1139
I1686
sV2535
p1140
I1687
sV2712
p1141
I1882
sV2713
p1142
I1883
sV2710
p1143
I1880
sV2711
p1144
I1881
sV2716
p1145
I1886
sV2717
p1146
I1887
sV2714
p1147
I1884
sV2715
p1148
I1885
sV3346
p1149
I2583
sV2718
p1150
I1888
sV2719
p1151
I1889
sV3347
p1152
I2584
sV3409
p1153
I2652
sV3344
p1154
I2581
sV3408
p1155
I2651
sV3345
p1156
I2582
sV1832
p1157
I917
sV1833
p1158
I918
sV1830
p1159
I915
sV1831
p1160
I916
sV1836
p1161
I921
sV1837
p1162
I922
sV1834
p1163
I919
sV1835
p1164
I920
sV3795
p1165
I3074
sV3090
p1166
I2300
sV1838
p1167
I923
sV1839
p1168
I924
sV3791
p1169
I3070
sV3790
p1170
I3069
sV3075
p1171
I2283
sV3792
p1172
I3071
sV2154
p1173
I1269
sV2155
p1174
I1270
sV2156
p1175
I1271
sV2157
p1176
I1272
sV2150
p1177
I1265
sV2151
p1178
I1266
sV2152
p1179
I1267
sV2153
p1180
I1268
sV933
p1181
I3779
sV932
p1182
I3778
sV931
p1183
I3777
sV930
p1184
I3776
sV2158
p1185
I1273
sV2159
p1186
I1274
sV2408
p1187
I1548
sV2409
p1188
I1549
sV471
p1189
I3270
sV3091
p1190
I2301
sV1955
p1191
I1050
sV1954
p1192
I1049
sV1957
p1193
I1052
sV1956
p1194
I1051
sV1951
p1195
I1046
sV1950
p1196
I1045
sV1953
p1197
I1048
sV1952
p1198
I1047
sV1959
p1199
I1054
sV1958
p1200
I1053
sV3249
p1201
I2476
sV3248
p1202
I2475
sV3096
p1203
I2306
sV3243
p1204
I2470
sV3242
p1205
I2469
sV3241
p1206
I2468
sV3240
p1207
I2467
sV3247
p1208
I2474
sV3246
p1209
I2473
sV3245
p1210
I2472
sV3244
p1211
I2471
sV829
p1212
I3663
sV828
p1213
I3662
sV825
p1214
I3659
sV824
p1215
I3658
sV827
p1216
I3661
sV826
p1217
I3660
sV821
p1218
I3655
sV820
p1219
I3654
sV823
p1220
I3657
sV822
p1221
I3656
sV3097
p1222
I2307
sV3227
p1223
I2452
sV1483
p1224
I532
sV1482
p1225
I531
sV1481
p1226
I530
sV1480
p1227
I529
sV1487
p1228
I536
sV1486
p1229
I535
sV1485
p1230
I534
sV1484
p1231
I533
sV3306
p1232
I2539
sV3307
p1233
I2540
sV1489
p1234
I538
sV1488
p1235
I537
sV3302
p1236
I2535
sV3303
p1237
I2536
sV3300
p1238
I2533
sV3301
p1239
I2534
sV1713
p1240
I787
sV1712
p1241
I786
sV1711
p1242
I785
sV1710
p1243
I784
sV1717
p1244
I791
sV1716
p1245
I790
sV1715
p1246
I789
sV1714
p1247
I788
sV1719
p1248
I793
sV1718
p1249
I792
sV2413
p1250
I1554
sV799
p1251
I3629
sV798
p1252
I3628
sV612
p1253
I3425
sV2412
p1254
I1553
sV613
p1255
I3426
sV2415
p1256
I1556
sV610
p1257
I3423
sV2414
p1258
I1555
sV1139
p1259
I154
sV1138
p1260
I153
sV2417
p1261
I1558
sV1133
p1262
I148
sV1132
p1263
I147
sV1131
p1264
I146
sV1130
p1265
I145
sV1137
p1266
I152
sV1136
p1267
I151
sV1135
p1268
I150
sV1134
p1269
I149
sV2792
p1270
I1969
sV614
p1271
I3427
sV2793
p1272
I1970
sV476
p1273
I3275
sV615
p1274
I3428
sV2790
p1275
I1967
sV3018
p1276
I2220
sV2791
p1277
I1968
sV3012
p1278
I2214
sV2796
p1279
I1973
sV3010
p1280
I2212
sV3011
p1281
I2213
sV3016
p1282
I2218
sV3017
p1283
I2219
sV3014
p1284
I2216
sV2797
p1285
I1974
sV519
p1286
I3322
sV518
p1287
I3321
sV2794
p1288
I1971
sV1009
p1289
I13
sV1008
p1290
I12
sV1007
p1291
I11
sV1006
p1292
I10
sV1005
p1293
I9
sV1004
p1294
I8
sV1003
p1295
I7
sV1002
p1296
I6
sV1001
p1297
I5
sV1000
p1298
I4
sV1227
p1299
I249
sV1226
p1300
I248
sV1225
p1301
I247
sV1224
p1302
I246
sV1223
p1303
I245
sV1222
p1304
I244
sV1221
p1305
I243
sV1220
p1306
I242
sV629
p1307
I3443
sV628
p1308
I3442
sV1229
p1309
I251
sV1228
p1310
I250
sV3279
p1311
I2509
sV2882
p1312
I2068
sV2883
p1313
I2069
sV2880
p1314
I2066
sV2881
p1315
I2067
sV2886
p1316
I2072
sV2887
p1317
I2073
sV2884
p1318
I2070
sV2885
p1319
I2071
sV2888
p1320
I2074
sV2889
p1321
I2075
sV2
I1099
sV3878
p1322
I3166
sV3879
p1323
I3167
sV3870
p1324
I3158
sV3871
p1325
I3159
sV3872
p1326
I3160
sV3873
p1327
I3161
sV3874
p1328
I3162
sV3875
p1329
I3163
sV3876
p1330
I3164
sV3877
p1331
I3165
sV11
p1332
I110
sV10
p1333
I2
sV13
p1334
I328
sV12
p1335
I219
sV15
p1336
I550
sV14
p1337
I439
sV17
p1338
I771
sV16
p1339
I660
sV19
p1340
I989
sV18
p1341
I881
sV3274
p1342
I2504
sV3275
p1343
I2505
sV3272
p1344
I2502
sV3194
p1345
I2415
sV3270
p1346
I2500
sV928
p1347
I3773
sV3027
p1348
I2230
sV3271
p1349
I2501
sV3193
p1350
I2414
sV929
p1351
I3774
sV2742
p1352
I1915
sV678
p1353
I3496
sV3278
p1354
I2508
sV3192
p1355
I2413
sV688
p1356
I3507
sV201
p1357
I1112
sV200
p1358
I1101
sV203
p1359
I1134
sV202
p1360
I1123
sV205
p1361
I1154
sV204
p1362
I1143
sV207
p1363
I1176
sV206
p1364
I1165
sV209
p1365
I1197
sV208
p1366
I1187
sV2745
p1367
I1918
sV830
p1368
I3665
sV685
p1369
I3504
sV3747
p1370
I3022
sV684
p1371
I3503
sV836
p1372
I3671
sV687
p1373
I3506
sV837
p1374
I3672
sV2239
p1375
I1362
sV2238
p1376
I1361
sV686
p1377
I3505
sV834
p1378
I3669
sV998
p1379
I3850
sV2231
p1380
I1354
sV2230
p1381
I1353
sV2233
p1382
I1356
sV2232
p1383
I1355
sV2235
p1384
I1358
sV2234
p1385
I1357
sV2237
p1386
I1360
sV2236
p1387
I1359
sV683
p1388
I3502
sV682
p1389
I3501
sV229
p1390
I1417
sV3498
p1391
I2750
sV3499
p1392
I2751
sV3496
p1393
I2748
sV3497
p1394
I2749
sV3494
p1395
I2746
sV228
p1396
I1406
sV3492
p1397
I2744
sV3493
p1398
I2745
sV3490
p1399
I2742
sV3491
p1400
I2743
sV2095
p1401
I1203
sV2094
p1402
I1202
sV2097
p1403
I1205
sV2096
p1404
I1204
sV2091
p1405
I1199
sV2090
p1406
I1198
sV2093
p1407
I1201
sV2092
p1408
I1200
sV3654
p1409
I2919
sV3655
p1410
I2920
sV3656
p1411
I2921
sV3657
p1412
I2922
sV2099
p1413
I1207
sV2098
p1414
I1206
sV3652
p1415
I2917
sV3653
p1416
I2918
sV2525
p1417
I1676
sV2524
p1418
I1675
sV2527
p1419
I1678
sV2188
p1420
I1306
sV2521
p1421
I1672
sV2520
p1422
I1671
sV2523
p1423
I1674
sV2522
p1424
I1673
sV2529
p1425
I1680
sV2528
p1426
I1679
sV2709
p1427
I1878
sV2708
p1428
I1877
sV2705
p1429
I1874
sV2704
p1430
I1873
sV258
p1431
I1734
sV2706
p1432
I1875
sV2701
p1433
I1870
sV2700
p1434
I1869
sV2703
p1435
I1872
sV2702
p1436
I1871
sV1829
p1437
I913
sV1828
p1438
I912
sV2951
p1439
I2145
sV1825
p1440
I909
sV1824
p1441
I908
sV1827
p1442
I911
sV1826
p1443
I910
sV1821
p1444
I905
sV1820
p1445
I904
sV1823
p1446
I907
sV1822
p1447
I906
sV2147
p1448
I1261
sV2146
p1449
I1260
sV2145
p1450
I1259
sV2144
p1451
I1258
sV2143
p1452
I1257
sV2142
p1453
I1256
sV2141
p1454
I1255
sV2140
p1455
I1254
sV2419
p1456
I1560
sV2418
p1457
I1559
sV922
p1458
I3767
sV923
p1459
I3768
sV924
p1460
I3769
sV925
p1461
I3770
sV2149
p1462
I1263
sV2148
p1463
I1262
sV3669
p1464
I2935
sV2411
p1465
I1552
sV1920
p1466
I1012
sV1921
p1467
I1013
sV1922
p1468
I1014
sV1923
p1469
I1015
sV1924
p1470
I1016
sV1925
p1471
I1017
sV1926
p1472
I1018
sV1927
p1473
I1019
sV1928
p1474
I1020
sV1929
p1475
I1021
sV475
p1476
I3274
sV3069
p1477
I2276
sV3145
p1478
I2361
sV3474
p1479
I2724
sV3475
p1480
I2725
sV3476
p1481
I2726
sV3477
p1482
I2727
sV3470
p1483
I2720
sV3471
p1484
I2721
sV3472
p1485
I2722
sV2410
p1486
I1551
sV838
p1487
I3673
sV839
p1488
I3674
sV3478
p1489
I2728
sV3479
p1490
I2729
sV3
I2198
sV493
p1491
I3294
sV3332
p1492
I2568
sV3199
p1493
I2420
sV3319
p1494
I2553
sV3318
p1495
I2552
sV3311
p1496
I2545
sV3310
p1497
I2544
sV3313
p1498
I2547
sV3312
p1499
I2546
sV3315
p1500
I2549
sV3314
p1501
I2548
sV3317
p1502
I2551
sV3316
p1503
I2550
sV784
p1504
I3614
sV785
p1505
I3615
sV787
p1506
I3616
sV3331
p1507
I2567
sV781
p1508
I3611
sV1728
p1509
I803
sV1729
p1510
I804
sV1726
p1511
I801
sV1727
p1512
I802
sV1724
p1513
I799
sV1725
p1514
I800
sV1722
p1515
I797
sV1723
p1516
I798
sV1720
p1517
I795
sV1721
p1518
I796
sV252
p1519
I1670
sV3330
p1520
I2566
sV2439
p1521
I1582
sV3005
p1522
I2206
sV3004
p1523
I2205
sV3007
p1524
I2208
sV2438
p1525
I1581
sV3001
p1526
I2202
sV3000
p1527
I2201
sV3003
p1528
I2204
sV3002
p1529
I2203
sV68
p1530
I3498
sV69
p1531
I3509
sV253
p1532
I1681
sV3008
p1533
I2209
sV407
p1534
I3199
sV1588
p1535
I648
sV1589
p1536
I649
sV406
p1537
I3198
sV1582
p1538
I642
sV1583
p1539
I643
sV1580
p1540
I640
sV1581
p1541
I641
sV1586
p1542
I646
sV1587
p1543
I647
sV1584
p1544
I644
sV1585
p1545
I645
sV2433
p1546
I1576
sV1038
p1547
I44
sV1039
p1548
I45
sV2432
p1549
I1575
sV1032
p1550
I39
sV1033
p1551
I40
sV1030
p1552
I37
sV1031
p1553
I38
sV1036
p1554
I42
sV1037
p1555
I43
sV500
p1556
I3303
sV1035
p1557
I41
sV1212
p1558
I234
sV1213
p1559
I235
sV1210
p1560
I232
sV1211
p1561
I233
sV1216
p1562
I237
sV1217
p1563
I238
sV636
p1564
I3451
sV1215
p1565
I236
sV638
p1566
I3453
sV1218
p1567
I239
sV1219
p1568
I240
sV780
p1569
I3610
sV2416
p1570
I1557
sV3335
p1571
I2571
sV465
p1572
I3263
sV782
p1573
I3612
sV2899
p1574
I2086
sV2898
p1575
I2085
sV2895
p1576
I2082
sV2894
p1577
I2081
sV2897
p1578
I2084
sV2896
p1579
I2083
sV2891
p1580
I2078
sV2890
p1581
I2077
sV2893
p1582
I2080
sV2892
p1583
I2079
sV1454
p1584
I500
sV1455
p1585
I501
sV1456
p1586
I502
sV1457
p1587
I503
sV1450
p1588
I496
sV1451
p1589
I497
sV1452
p1590
I498
sV1453
p1591
I499
sV408
p1592
I3200
sV1458
p1593
I504
sV1459
p1594
I505
sV1108
p1595
I120
sV1109
p1596
I121
sV3869
p1597
I3156
sV3868
p1598
I3155
sV3863
p1599
I3150
sV3862
p1600
I3149
sV3861
p1601
I3148
sV3860
p1602
I3147
sV3867
p1603
I3154
sV3866
p1604
I3153
sV3865
p1605
I3152
sV3864
p1606
I3151
sV3737
p1607
I3011
sV3736
p1608
I3010
sV3735
p1609
I3009
sV3734
p1610
I3008
sV3733
p1611
I3007
sV3732
p1612
I3006
sV3731
p1613
I3005
sV3730
p1614
I3004
sV959
p1615
I3807
sV958
p1616
I3806
sV461
p1617
I3259
sV3070
p1618
I2278
sV2965
p1619
I2160
sV3071
p1620
I2279
sV216
p1621
I1275
sV217
p1622
I1286
sV214
p1623
I1253
sV215
p1624
I1264
sV212
p1625
I1231
sV213
p1626
I1242
sV210
p1627
I1209
sV211
p1628
I1220
sV218
p1629
I1297
sV219
p1630
I1308
sV920
p1631
I3765
sV578
p1632
I3386
sV3094
p1633
I2304
sV788
p1634
I3617
sV956
p1635
I3804
sV789
p1636
I3618
sV4
I3190
sV3489
p1637
I2740
sV3488
p1638
I2739
sV3481
p1639
I2732
sV3480
p1640
I2731
sV3284
p1641
I2515
sV3482
p1642
I2733
sV3485
p1643
I2736
sV3484
p1644
I2735
sV3487
p1645
I2738
sV3486
p1646
I2737
sV938
p1647
I3784
sV3649
p1648
I2913
sV3648
p1649
I2912
sV3647
p1650
I2911
sV3646
p1651
I2910
sV3645
p1652
I2909
sV3644
p1653
I2908
sV3643
p1654
I2907
sV3642
p1655
I2906
sV3641
p1656
I2905
sV3640
p1657
I2904
sV2550
p1658
I1703
sV2551
p1659
I1704
sV2552
p1660
I1705
sV2553
p1661
I1706
sV2554
p1662
I1707
sV2555
p1663
I1708
sV2556
p1664
I1709
sV61
p1665
I3422
sV2558
p1666
I1710
sV2559
p1667
I1711
sV62
p1668
I3433
sV2396
p1669
I1534
sV2397
p1670
I1535
sV2394
p1671
I1532
sV2395
p1672
I1533
sV2392
p1673
I1530
sV2393
p1674
I1531
sV2390
p1675
I1528
sV2391
p1676
I1529
sV64
p1677
I3454
sV2398
p1678
I1536
sV2399
p1679
I1537
sV2779
p1680
I1954
sV640
p1681
I3455
sV66
p1682
I3476
sV3282
p1683
I2513
sV2770
p1684
I1946
sV2771
p1685
I1947
sV2772
p1686
I1948
sV2773
p1687
I1949
sV2774
p1688
I1950
sV2775
p1689
I1951
sV2776
p1690
I1952
sV2777
p1691
I1953
sV3166
p1692
I2384
sV2751
p1693
I1925
sV3167
p1694
I2385
sV3164
p1695
I2382
sV984
p1696
I3835
sV1858
p1697
I944
sV1859
p1698
I945
sV3165
p1699
I2383
sV3281
p1700
I2512
sV921
p1701
I3766
sV1850
p1702
I937
sV1851
p1703
I938
sV1852
p1704
I939
sV1853
p1705
I940
sV1854
p1706
I941
sV1855
p1707
I942
sV1857
p1708
I943
sV2172
p1709
I1289
sV2173
p1710
I1290
sV2170
p1711
I1287
sV2171
p1712
I1288
sV2176
p1713
I1293
sV2177
p1714
I1294
sV2174
p1715
I1291
sV2175
p1716
I1292
sV915
p1717
I3759
sV914
p1718
I3758
sV2178
p1719
I1295
sV2179
p1720
I1296
sV911
p1721
I3755
sV910
p1722
I3754
sV913
p1723
I3757
sV912
p1724
I3756
sV2604
p1725
I1762
sV2605
p1726
I1763
sV2606
p1727
I1764
sV2607
p1728
I1765
sV2600
p1729
I1758
sV2601
p1730
I1759
sV2602
p1731
I1760
sV2603
p1732
I1761
sV2608
p1733
I1766
sV1423
p1734
I466
sV1933
p1735
I1026
sV1932
p1736
I1025
sV1931
p1737
I1024
sV1930
p1738
I1023
sV1937
p1739
I1030
sV1936
p1740
I1029
sV1935
p1741
I1028
sV1934
p1742
I1027
sV3269
p1743
I2498
sV3268
p1744
I2497
sV1939
p1745
I1032
sV1938
p1746
I1031
sV3369
p1747
I2608
sV3467
p1748
I2716
sV3466
p1749
I2715
sV3465
p1750
I2714
sV3464
p1751
I2713
sV3463
p1752
I2712
sV3462
p1753
I2711
sV3461
p1754
I2710
sV3460
p1755
I2709
sV3469
p1756
I2718
sV3468
p1757
I2717
sV664
p1758
I3481
sV3364
p1759
I2603
sV3009
p1760
I2210
sV2406
p1761
I1546
sV663
p1762
I3480
sV3361
p1763
I2600
sV2407
p1764
I1547
sV1739
p1765
I814
sV1738
p1766
I813
sV1731
p1767
I807
sV1730
p1768
I806
sV1732
p1769
I808
sV1735
p1770
I810
sV1734
p1771
I809
sV1737
p1772
I812
sV1736
p1773
I811
sV732
p1774
I3557
sV753
p1775
I3580
sV3782
p1776
I3060
sV751
p1777
I3578
sV750
p1778
I3577
sV757
p1779
I3584
sV756
p1780
I3583
sV755
p1781
I3582
sV3783
p1782
I3061
sV661
p1783
I3478
sV509
p1784
I3311
sV3780
p1785
I3058
sV1595
p1786
I655
sV1594
p1787
I654
sV1597
p1788
I657
sV1596
p1789
I656
sV2958
p1790
I2152
sV1590
p1791
I651
sV1593
p1792
I653
sV1592
p1793
I652
sV2954
p1794
I2148
sV2955
p1795
I2149
sV2956
p1796
I2150
sV2957
p1797
I2151
sV1599
p1798
I659
sV1598
p1799
I658
sV2952
p1800
I2146
sV2953
p1801
I2147
sV1025
p1802
I31
sV1024
p1803
I30
sV1027
p1804
I33
sV1026
p1805
I32
sV1021
p1806
I27
sV1020
p1807
I26
sV1023
p1808
I29
sV1022
p1809
I28
sV502
p1810
I3305
sV3785
p1811
I3063
sV1029
p1812
I35
sV1028
p1813
I34
sV503
p1814
I3306
sV501
p1815
I3304
sV605
p1816
I3417
sV604
p1817
I3416
sV2609
p1818
I1767
sV606
p1819
I3418
sV1209
p1820
I230
sV1208
p1821
I229
sV603
p1822
I3415
sV602
p1823
I3414
sV1205
p1824
I226
sV1204
p1825
I225
sV1207
p1826
I228
sV1206
p1827
I227
sV1201
p1828
I222
sV1200
p1829
I221
sV1203
p1830
I224
sV1202
p1831
I223
sV633
p1832
I3448
sV634
p1833
I3449
sV935
p1834
I3781
sV468
p1835
I3266
sV3108
p1836
I2320
sV3109
p1837
I2321
sV3104
p1838
I2316
sV3105
p1839
I2317
sV3106
p1840
I2318
sV3107
p1841
I2319
sV3100
p1842
I2312
sV3101
p1843
I2313
sV3102
p1844
I2314
sV3103
p1845
I2315
sV1447
p1846
I492
sV1446
p1847
I491
sV1113
p1848
I126
sV1112
p1849
I125
sV1443
p1850
I488
sV1442
p1851
I487
sV1117
p1852
I130
sV1440
p1853
I485
sV1119
p1854
I132
sV1118
p1855
I131
sV467
p1856
I3265
sV1449
p1857
I494
sV1448
p1858
I493
sV466
p1859
I3264
sV78
p1860
I3609
sV2401
p1861
I1541
sV450
p1862
I3247
sV460
p1863
I3258
sV463
p1864
I3261
sV489
p1865
I3289
sV488
p1866
I3288
sV3704
p1867
I2975
sV486
p1868
I3286
sV485
p1869
I3285
sV462
p1870
I3260
sV483
p1871
I3283
sV482
p1872
I3282
sV481
p1873
I3281
sV480
p1874
I3280
sV991
p1875
I3843
sV451
p1876
I3248
sV3705
p1877
I2976
sV990
p1878
I3842
sV695
p1879
I3515
sV723
p1880
I3547
sV453
p1881
I3250
sV3856
p1882
I3142
sV3857
p1883
I3143
sV3854
p1884
I3140
sV3855
p1885
I3141
sV3852
p1886
I3138
sV3853
p1887
I3139
sV3850
p1888
I3136
sV3851
p1889
I3137
sV992
p1890
I3844
sV3858
p1891
I3144
sV3859
p1892
I3145
sV3283
p1893
I2514
sV619
p1894
I3432
sV3665
p1895
I2931
sV900
p1896
I3743
sV199
p1897
I1088
sV198
p1898
I1077
sV3664
p1899
I2930
sV195
p1900
I1044
sV194
p1901
I1033
sV197
p1902
I1066
sV196
p1903
I1055
sV191
p1904
I1000
sV190
p1905
I990
sV193
p1906
I1022
sV192
p1907
I1011
sV3678
p1908
I2945
sV3679
p1909
I2946
sV3672
p1910
I2939
sV3673
p1911
I2940
sV3670
p1912
I2937
sV3671
p1913
I2938
sV3676
p1914
I2943
sV3677
p1915
I2944
sV3674
p1916
I2941
sV3675
p1917
I2942
sV2543
p1918
I1695
sV1106
p1919
I118
sV2541
p1920
I1693
sV2540
p1921
I1692
sV2547
p1922
I1699
sV2546
p1923
I1698
sV2545
p1924
I1697
sV1107
p1925
I119
sV3006
p1926
I2207
sV2549
p1927
I1701
sV2548
p1928
I1700
sV1104
p1929
I116
sV2381
p1930
I1518
sV2380
p1931
I1517
sV2383
p1932
I1520
sV1105
p1933
I117
sV2385
p1934
I1522
sV2384
p1935
I1521
sV2387
p1936
I1524
sV2386
p1937
I1523
sV2389
p1938
I1526
sV1102
p1939
I114
sV1103
p1940
I115
sV3580
p1941
I2839
sV3581
p1942
I2840
sV2769
p1943
I1944
sV2768
p1944
I1943
sV3584
p1945
I2843
sV1100
p1946
I112
sV3586
p1947
I2845
sV3259
p1948
I2487
sV2763
p1949
I1938
sV2762
p1950
I1937
sV2761
p1951
I1936
sV1101
p1952
I113
sV2767
p1953
I1942
sV2766
p1954
I1941
sV2765
p1955
I1940
sV2764
p1956
I1939
sV999
p1957
I3851
sV902
p1958
I3745
sV903
p1959
I3746
sV1849
p1960
I935
sV1848
p1961
I934
sV906
p1962
I3749
sV907
p1963
I3750
sV904
p1964
I3747
sV905
p1965
I3748
sV1843
p1966
I929
sV1842
p1967
I928
sV1841
p1968
I927
sV1840
p1969
I926
sV1847
p1970
I933
sV1846
p1971
I932
sV1845
p1972
I931
sV1844
p1973
I930
sV3250
p1974
I2478
sV2169
p1975
I1285
sV2168
p1976
I1284
sV3251
p1977
I2479
sV2165
p1978
I1281
sV2164
p1979
I1280
sV2167
p1980
I1283
sV2166
p1981
I1282
sV2161
p1982
I1277
sV2160
p1983
I1276
sV2163
p1984
I1279
sV2162
p1985
I1278
sV2617
p1986
I1776
sV2616
p1987
I1775
sV2615
p1988
I1774
sV2614
p1989
I1773
sV2613
p1990
I1772
sV2612
p1991
I1771
sV2611
p1992
I1770
sV2610
p1993
I1769
sV3254
p1994
I2482
sV2619
p1995
I1778
sV2618
p1996
I1777
sV3298
p1997
I2530
sV3256
p1998
I2484
sV1908
p1999
I998
sV1909
p2000
I999
sV1906
p2001
I996
sV1907
p2002
I997
sV1904
p2003
I994
sV1905
p2004
I995
sV1902
p2005
I992
sV1903
p2006
I993
sV3292
p2007
I2524
sV1901
p2008
I991
sV3452
p2009
I2700
sV3453
p2010
I2701
sV3450
p2011
I2698
sV3451
p2012
I2699
sV3456
p2013
I2704
sV3457
p2014
I2705
sV3454
p2015
I2702
sV3455
p2016
I2703
sV3458
p2017
I2706
sV3459
p2018
I2707
sV858
p2019
I3695
sV859
p2020
I3696
sV3293
p2021
I2525
sV6
I3410
sV641
p2022
I3456
sV425
p2023
I3219
sV811
p2024
I3644
sV611
p2025
I3424
sV817
p2026
I3650
sV616
p2027
I3429
sV740
p2028
I3566
sV741
p2029
I3567
sV742
p2030
I3568
sV743
p2031
I3569
sV744
p2032
I3570
sV745
p2033
I3571
sV746
p2034
I3572
sV2858
p2035
I2041
sV748
p2036
I3574
sV749
p2037
I3575
sV2912
p2038
I2102
sV3063
p2039
I2270
sV3062
p2040
I2269
sV3061
p2041
I2268
sV2913
p2042
I2103
sV3067
p2043
I2274
sV3066
p2044
I2273
sV2949
p2045
I2142
sV2948
p2046
I2141
sV2947
p2047
I2140
sV2946
p2048
I2139
sV2945
p2049
I2138
sV2944
p2050
I2137
sV2943
p2051
I2136
sV2942
p2052
I2135
sV2941
p2053
I2134
sV2940
p2054
I2133
sV1050
p2055
I57
sV1051
p2056
I58
sV1052
p2057
I59
sV1053
p2058
I60
sV1054
p2059
I61
sV1055
p2060
I62
sV1056
p2061
I63
sV1057
p2062
I64
sV1058
p2063
I65
sV1059
p2064
I66
sV718
p2065
I3541
sV1696
p2066
I767
sV1697
p2067
I768
sV1694
p2068
I765
sV1695
p2069
I766
sV1692
p2070
I763
sV1693
p2071
I764
sV1690
p2072
I761
sV1691
p2073
I762
sV715
p2074
I3538
sV1698
p2075
I769
sV1699
p2076
I770
sV1278
p2077
I304
sV1279
p2078
I305
sV618
p2079
I3431
sV2852
p2080
I2035
sV1270
p2081
I297
sV1271
p2082
I298
sV1272
p2083
I299
sV1273
p2084
I300
sV1274
p2085
I301
sV1275
p2086
I302
sV1276
p2087
I303
sV2854
p2088
I2037
sV711
p2089
I3534
sV710
p2090
I3533
sV3333
p2091
I2569
sV3119
p2092
I2332
sV3118
p2093
I2331
sV3117
p2094
I2330
sV3116
p2095
I2329
sV3115
p2096
I2328
sV3114
p2097
I2327
sV3113
p2098
I2326
sV3112
p2099
I2325
sV3111
p2100
I2324
sV3110
p2101
I2323
sV1472
p2102
I520
sV1473
p2103
I521
sV1470
p2104
I518
sV1471
p2105
I519
sV1476
p2106
I524
sV1477
p2107
I525
sV1474
p2108
I522
sV1475
p2109
I523
sV3337
p2110
I2573
sV1478
p2111
I526
sV1479
p2112
I527
sV3336
p2113
I2572
sV1304
p2114
I334
sV1305
p2115
I335
sV1306
p2116
I336
sV1307
p2117
I337
sV1300
p2118
I330
sV1301
p2119
I331
sV1302
p2120
I332
sV1303
p2121
I333
sV3334
p2122
I2570
sV1308
p2123
I338
sV1309
p2124
I339
sV3308
p2125
I2541
sV3590
p2126
I2850
sV498
p2127
I3299
sV499
p2128
I3300
sV3280
p2129
I2511
sV494
p2130
I3295
sV3597
p2131
I2857
sV496
p2132
I3297
sV497
p2133
I3298
sV490
p2134
I3291
sV491
p2135
I3292
sV492
p2136
I3293
sV3596
p2137
I2856
sV24
p2138
I1538
sV25
p2139
I1647
sV26
p2140
I1756
sV27
p2141
I1867
sV20
p2142
I1100
sV21
p2143
I1208
sV22
p2144
I1319
sV23
p2145
I1427
sV3594
p2146
I2854
sV28
p2147
I1977
sV29
p2148
I2087
sV3262
p2149
I2491
sV3265
p2150
I2494
sV3841
p2151
I3126
sV3840
p2152
I3125
sV3264
p2153
I2493
sV3842
p2154
I3127
sV3845
p2155
I3130
sV3844
p2156
I3129
sV3847
p2157
I3132
sV3846
p2158
I3131
sV3849
p2159
I3134
sV3848
p2160
I3133
sV963
p2161
I3812
sV874
p2162
I3713
sV7
I3520
sV607
p2163
I3419
sV2288
p2164
I1415
sV2289
p2165
I1416
sV3667
p2166
I2933
sV3666
p2167
I2932
sV3661
p2168
I2927
sV3660
p2169
I2926
sV3663
p2170
I2929
sV3662
p2171
I2928
sV2280
p2172
I1407
sV2281
p2173
I1408
sV2282
p2174
I1409
sV2283
p2175
I1410
sV2284
p2176
I1411
sV2285
p2177
I1412
sV2286
p2178
I1413
sV2287
p2179
I1414
sV411
p2180
I3204
sV939
p2181
I3785
sV420
p2182
I3214
sV2578
p2183
I1732
sV2579
p2184
I1733
sV2576
p2185
I1730
sV2577
p2186
I1731
sV2574
p2187
I1728
sV2575
p2188
I1729
sV2572
p2189
I1726
sV2573
p2190
I1727
sV2570
p2191
I1724
sV2571
p2192
I1725
sV3690
p2193
I2959
sV2378
p2194
I1514
sV2379
p2195
I1515
sV3691
p2196
I2960
sV2374
p2197
I1510
sV2375
p2198
I1511
sV2376
p2199
I1512
sV2377
p2200
I1513
sV2370
p2201
I1506
sV2371
p2202
I1507
sV2372
p2203
I1508
sV2373
p2204
I1509
sV2594
p2205
I1750
sV2595
p2206
I1751
sV2596
p2207
I1752
sV2597
p2208
I1753
sV2590
p2209
I1746
sV2591
p2210
I1747
sV2592
p2211
I1748
sV2593
p2212
I1749
sV3599
p2213
I2859
sV3598
p2214
I2858
sV2598
p2215
I1754
sV2599
p2216
I1755
sV1876
p2217
I964
sV1877
p2218
I965
sV1874
p2219
I962
sV1875
p2220
I963
sV1872
p2221
I960
sV1873
p2222
I961
sV1870
p2223
I958
sV1871
p2224
I959
sV600
p2225
I3412
sV595
p2226
I3405
sV1878
p2227
I966
sV1879
p2228
I967
sV977
p2229
I3827
sV182
p2230
I903
sV975
p2231
I3825
sV974
p2232
I3824
sV973
p2233
I3823
sV597
p2234
I3407
sV971
p2235
I3821
sV183
p2236
I914
sV596
p2237
I3406
sV979
p2238
I3829
sV978
p2239
I3828
sV2118
p2240
I1229
sV2119
p2241
I1230
sV180
p2242
I882
sV181
p2243
I892
sV186
p2244
I946
sV187
p2245
I957
sV184
p2246
I925
sV185
p2247
I936
sV2110
p2248
I1221
sV2111
p2249
I1222
sV2112
p2250
I1223
sV2113
p2251
I1224
sV2114
p2252
I1225
sV2115
p2253
I1226
sV2116
p2254
I1227
sV2117
p2255
I1228
sV2622
p2256
I1782
sV2623
p2257
I1783
sV2620
p2258
I1780
sV2621
p2259
I1781
sV2626
p2260
I1786
sV2627
p2261
I1787
sV2624
p2262
I1784
sV2625
p2263
I1785
sV2628
p2264
I1788
sV2629
p2265
I1789
sV60
p2266
I3411
sV1919
p2267
I1010
sV1918
p2268
I1009
sV3289
p2269
I2520
sV3288
p2270
I2519
sV1911
p2271
I1002
sV1910
p2272
I1001
sV1913
p2273
I1004
sV1912
p2274
I1003
sV1915
p2275
I1006
sV188
p2276
I968
sV1917
p2277
I1008
sV1916
p2278
I1007
sV869
p2279
I3707
sV868
p2280
I3706
sV189
p2281
I978
sV3449
p2282
I2696
sV3448
p2283
I2695
sV516
p2284
I3319
sV3141
p2285
I2357
sV3445
p2286
I2692
sV3444
p2287
I2691
sV3447
p2288
I2694
sV3446
p2289
I2693
sV3441
p2290
I2688
sV3440
p2291
I2687
sV3443
p2292
I2690
sV3442
p2293
I2689
sV2024
p2294
I1128
sV2025
p2295
I1129
sV2026
p2296
I1130
sV2027
p2297
I1131
sV2020
p2298
I1124
sV2021
p2299
I1125
sV2022
p2300
I1126
sV2023
p2301
I1127
sV3144
p2302
I2360
sV2028
p2303
I1132
sV2029
p2304
I1133
sV2758
p2305
I1932
sV2759
p2306
I1933
sV883
p2307
I3723
sV882
p2308
I3722
sV881
p2309
I3721
sV880
p2310
I3720
sV887
p2311
I3727
sV886
p2312
I3726
sV885
p2313
I3725
sV884
p2314
I3724
sV889
p2315
I3729
sV888
p2316
I3728
sV3148
p2317
I2364
sV3149
p2318
I2365
sV657
p2319
I3473
sV3729
p2320
I3002
sV63
p2321
I3444
sV418
p2322
I3211
sV654
p2323
I3470
sV775
p2324
I3604
sV774
p2325
I3603
sV777
p2326
I3606
sV776
p2327
I3605
sV771
p2328
I3600
sV770
p2329
I3599
sV773
p2330
I3602
sV772
p2331
I3601
sV779
p2332
I3608
sV778
p2333
I3607
sV419
p2334
I3212
sV77
p2335
I3598
sV76
p2336
I3587
sV2978
p2337
I2174
sV2979
p2338
I2175
sV73
p2339
I3554
sV72
p2340
I3543
sV3058
p2341
I2264
sV3059
p2342
I2265
sV2972
p2343
I2168
sV2973
p2344
I2169
sV2970
p2345
I2166
sV2971
p2346
I2167
sV2976
p2347
I2172
sV2977
p2348
I2173
sV2974
p2349
I2170
sV2975
p2350
I2171
sV1043
p2351
I49
sV1042
p2352
I48
sV1041
p2353
I47
sV1047
p2354
I53
sV1046
p2355
I52
sV1045
p2356
I51
sV1044
p2357
I50
sV1049
p2358
I55
sV1048
p2359
I54
sV1681
p2360
I751
sV1680
p2361
I750
sV1683
p2362
I753
sV1682
p2363
I752
sV1685
p2364
I755
sV1684
p2365
I754
sV1687
p2366
I757
sV1686
p2367
I756
sV1689
p2368
I759
sV1688
p2369
I758
sV3025
p2370
I2228
sV1269
p2371
I295
sV1268
p2372
I294
sV3341
p2373
I2578
sV669
p2374
I3486
sV668
p2375
I3485
sV1263
p2376
I289
sV1262
p2377
I288
sV1261
p2378
I287
sV1260
p2379
I286
sV1267
p2380
I293
sV1266
p2381
I292
sV1265
p2382
I291
sV1264
p2383
I290
sV3287
p2384
I2518
sV3021
p2385
I2224
sV3286
p2386
I2517
sV3095
p2387
I2305
sV3020
p2388
I2223
sV3285
p2389
I2516
sV67
p2390
I3487
sV3128
p2391
I2342
sV3129
p2392
I2343
sV3122
p2393
I2336
sV3123
p2394
I2337
sV264
p2395
I1801
sV3121
p2396
I2335
sV3126
p2397
I2340
sV3127
p2398
I2341
sV3124
p2399
I2338
sV1914
p2400
I1005
sV421
p2401
I3215
sV650
p2402
I3466
sV1469
p2403
I516
sV1468
p2404
I515
sV1465
p2405
I512
sV1464
p2406
I511
sV1467
p2407
I514
sV1466
p2408
I513
sV1461
p2409
I508
sV1460
p2410
I507
sV1463
p2411
I510
sV1462
p2412
I509
sV1317
p2413
I348
sV1316
p2414
I347
sV1315
p2415
I346
sV1314
p2416
I345
sV1313
p2417
I344
sV1312
p2418
I343
sV1311
p2419
I342
sV1310
p2420
I341
sV3276
p2421
I2506
sV1319
p2422
I350
sV1318
p2423
I349
sV767
p2424
I3595
sV926
p2425
I3771
sV3277
p2426
I2507
sV528
p2427
I3332
sV464
p2428
I3262
sV529
p2429
I3333
sV861
p2430
I3699
sV3035
p2431
I2239
sV860
p2432
I3698
sV712
p2433
I3535
sV863
p2434
I3701
sV319
p2435
I2410
sV318
p2436
I2399
sV3403
p2437
I2647
sV313
p2438
I2344
sV312
p2439
I2333
sV311
p2440
I2322
sV310
p2441
I2311
sV317
p2442
I2388
sV316
p2443
I2377
sV315
p2444
I2366
sV314
p2445
I2355
sV867
p2446
I3705
sV866
p2447
I3704
sV2756
p2448
I1930
sV3402
p2449
I2646
sV2757
p2450
I1931
sV2754
p2451
I1928
sV443
p2452
I3239
sV2755
p2453
I1929
sV442
p2454
I3238
sV2752
p2455
I1926
sV441
p2456
I3237
sV3658
p2457
I2923
sV2753
p2458
I1927
sV3405
p2459
I2648
sV440
p2460
I3236
sV2750
p2461
I1924
sV2322
p2462
I1453
sV447
p2463
I3243
sV2698
p2464
I1865
sV446
p2465
I3242
sV445
p2466
I3241
sV444
p2467
I3240
sV3273
p2468
I2503
sV2324
p2469
I1455
sV2692
p2470
I1859
sV630
p2471
I3445
sV405
p2472
I3197
sV3843
p2473
I3128
sV3407
p2474
I2650
sV3610
p2475
I2873
sV3611
p2476
I2874
sV2299
p2477
I1426
sV2298
p2478
I1425
sV3614
p2479
I2877
sV3615
p2480
I2878
sV3616
p2481
I2879
sV3617
p2482
I2880
sV2293
p2483
I1421
sV2292
p2484
I1420
sV2291
p2485
I1419
sV2290
p2486
I1418
sV2297
p2487
I1424
sV2296
p2488
I1423
sV631
p2489
I3446
sV2294
p2490
I1422
sV404
p2491
I3196
sV3406
p2492
I2649
sV2569
p2493
I1722
sV2568
p2494
I1721
sV2561
p2495
I1714
sV2560
p2496
I1713
sV2563
p2497
I1716
sV2562
p2498
I1715
sV2565
p2499
I1718
sV2564
p2500
I1717
sV2567
p2501
I1720
sV2566
p2502
I1719
sV908
p2503
I3751
sV2369
p2504
I1504
sV2368
p2505
I1503
sV2367
p2506
I1502
sV2366
p2507
I1501
sV2365
p2508
I1500
sV2364
p2509
I1499
sV2363
p2510
I1498
sV2362
p2511
I1497
sV2361
p2512
I1496
sV2360
p2513
I1495
sV2587
p2514
I1742
sV2586
p2515
I1741
sV2585
p2516
I1740
sV2584
p2517
I1739
sV2583
p2518
I1738
sV2582
p2519
I1737
sV2581
p2520
I1736
sV2580
p2521
I1735
sV865
p2522
I3703
sV39
p2523
I3180
sV2589
p2524
I1744
sV2588
p2525
I1743
sV1861
p2526
I948
sV1860
p2527
I947
sV1863
p2528
I950
sV1862
p2529
I949
sV1865
p2530
I952
sV1864
p2531
I951
sV1867
p2532
I954
sV1866
p2533
I953
sV1869
p2534
I956
sV1868
p2535
I955
sV3726
p2536
I2999
sV3727
p2537
I3000
sV3720
p2538
I2993
sV3721
p2539
I2994
sV3722
p2540
I2995
sV3723
p2541
I2996
sV964
p2542
I3813
sV965
p2543
I3814
sV966
p2544
I3815
sV967
p2545
I3816
sV960
p2546
I3809
sV961
p2547
I3810
sV962
p2548
I3811
sV864
p2549
I3702
sV1613
p2550
I676
sV401
p2551
I3193
sV968
p2552
I3817
sV969
p2553
I3818
sV2109
p2554
I1219
sV2108
p2555
I1218
sV2103
p2556
I1213
sV2102
p2557
I1212
sV2101
p2558
I1211
sV2100
p2559
I1210
sV2107
p2560
I1217
sV2106
p2561
I1216
sV2105
p2562
I1215
sV2104
p2563
I1214
sV2639
p2564
I1800
sV2638
p2565
I1799
sV635
p2566
I3450
sV2635
p2567
I1796
sV2634
p2568
I1795
sV2637
p2569
I1798
sV2636
p2570
I1797
sV2631
p2571
I1792
sV2630
p2572
I1791
sV2633
p2573
I1794
sV2632
p2574
I1793
sV3765
p2575
I3042
sV3438
p2576
I2684
sV1537
p2577
I592
sV878
p2578
I3717
sV1536
p2579
I591
sV3430
p2580
I2676
sV3431
p2581
I2677
sV3432
p2582
I2678
sV3433
p2583
I2679
sV3434
p2584
I2680
sV1535
p2585
I590
sV3436
p2586
I2682
sV3437
p2587
I2683
sV2037
p2588
I1141
sV2036
p2589
I1140
sV2035
p2590
I1139
sV2034
p2591
I1138
sV2033
p2592
I1137
sV2032
p2593
I1136
sV2747
p2594
I1920
sV2030
p2595
I1135
sV2749
p2596
I1922
sV1533
p2597
I588
sV3483
p2598
I2734
sV2038
p2599
I1142
sV890
p2600
I3731
sV891
p2601
I3732
sV637
p2602
I3452
sV893
p2603
I3734
sV894
p2604
I3735
sV1531
p2605
I586
sV896
p2606
I3737
sV897
p2607
I3738
sV898
p2608
I3739
sV899
p2609
I3740
sV1530
p2610
I585
sV3651
p2611
I2916
sV783
p2612
I3613
sV649
p2613
I3464
sV648
p2614
I3463
sV769
p2615
I3597
sV3236
p2616
I2462
sV3237
p2617
I2463
sV3544
p2618
I2801
sV3545
p2619
I2802
sV3546
p2620
I2803
sV3547
p2621
I2804
sV3540
p2622
I2798
sV3234
p2623
I2460
sV3542
p2624
I2800
sV262
p2625
I1779
sV3235
p2626
I2461
sV3548
p2627
I2805
sV3549
p2628
I2806
sV1964
p2629
I1060
sV422
p2630
I3216
sV430
p2631
I3225
sV1965
p2632
I1061
sV1966
p2633
I1062
sV1788
p2634
I868
sV1789
p2635
I869
sV2967
p2636
I2162
sV1967
p2637
I1063
sV2961
p2638
I2156
sV2960
p2639
I2155
sV2963
p2640
I2158
sV2962
p2641
I2157
sV1780
p2642
I860
sV1612
p2643
I675
sV1782
p2644
I862
sV1783
p2645
I863
sV1784
p2646
I864
sV1785
p2647
I865
sV1786
p2648
I866
sV1787
p2649
I867
sV3049
p2650
I2254
sV3048
p2651
I2253
sV1962
p2652
I1058
sV3041
p2653
I2246
sV3040
p2654
I2245
sV3043
p2655
I2248
sV1963
p2656
I1059
sV3045
p2657
I2250
sV3044
p2658
I2249
sV3047
p2659
I2252
sV3046
p2660
I2251
sV707
p2661
I3529
sV1078
p2662
I87
sV1079
p2663
I88
sV1076
p2664
I85
sV1077
p2665
I86
sV1074
p2666
I83
sV1075
p2667
I84
sV1072
p2668
I81
sV1073
p2669
I82
sV1070
p2670
I79
sV1071
p2671
I80
sV1678
p2672
I747
sV1679
p2673
I748
sV1674
p2674
I743
sV1675
p2675
I744
sV1676
p2676
I745
sV1677
p2677
I746
sV1670
p2678
I739
sV1671
p2679
I740
sV1672
p2680
I741
sV1673
p2681
I742
sV1094
p2682
I104
sV1095
p2683
I105
sV1096
p2684
I106
sV1097
p2685
I107
sV1090
p2686
I101
sV679
p2687
I3497
sV1092
p2688
I102
sV1534
p2689
I589
sV674
p2690
I3492
sV675
p2691
I3493
sV676
p2692
I3494
sV677
p2693
I3495
sV1098
p2694
I108
sV1099
p2695
I109
sV672
p2696
I3490
sV673
p2697
I3491
sV3135
p2698
I2350
sV3134
p2699
I2349
sV3137
p2700
I2352
sV3136
p2701
I2351
sV3131
p2702
I2346
sV3130
p2703
I2345
sV3133
p2704
I2348
sV3132
p2705
I2347
sV3139
p2706
I2354
sV3138
p2707
I2353
sV645
p2708
I3460
sV855
p2709
I3692
sV1418
p2710
I460
sV1419
p2711
I461
sV2490
p2712
I1638
sV1410
p2713
I452
sV1411
p2714
I453
sV1412
p2715
I454
sV1413
p2716
I455
sV1414
p2717
I456
sV1415
p2718
I457
sV1416
p2719
I458
sV1417
p2720
I459
sV1322
p2721
I354
sV1323
p2722
I355
sV1320
p2723
I352
sV1532
p2724
I587
sV1326
p2725
I358
sV1327
p2726
I359
sV1324
p2727
I356
sV1325
p2728
I357
sV1328
p2729
I360
sV1329
p2730
I361
sV656
p2731
I3472
sV5
I3301
sV647
p2732
I3462
sV857
p2733
I3694
sV2874
p2734
I2059
sV3618
p2735
I2881
sV1524
p2736
I578
sV1525
p2737
I579
sV1526
p2738
I580
sV1527
p2739
I581
sV1520
p2740
I574
sV1521
p2741
I575
sV1522
p2742
I576
sV1523
p2743
I577
sV1528
p2744
I582
sV1529
p2745
I583
sV1258
p2746
I283
sV1259
p2747
I284
sV308
p2748
I2288
sV309
p2749
I2299
sV652
p2750
I3468
sV300
p2751
I2200
sV301
p2752
I2211
sV302
p2753
I2222
sV303
p2754
I2233
sV304
p2755
I2244
sV305
p2756
I2255
sV306
p2757
I2266
sV307
p2758
I2277
sV2254
p2759
I1378
sV75
p2760
I3576
sV74
p2761
I3565
sV3340
p2762
I2577
sV71
p2763
I3532
sV70
p2764
I3521
sV988
p2765
I3839
sV3415
p2766
I2659
sV3056
p2767
I2262
sV989
p2768
I3840
sV3057
p2769
I2263
sV3054
p2770
I2260
sV3204
p2771
I2427
sV3055
p2772
I2261
sV472
p2773
I3271
sV3052
p2774
I2258
sV3412
p2775
I2656
sV3053
p2776
I2259
sV3050
p2777
I2256
sV983
p2778
I3834
sV3051
p2779
I2257
sV3603
p2780
I2865
sV3602
p2781
I2864
sV3601
p2782
I2863
sV3600
p2783
I2862
sV3607
p2784
I2869
sV3606
p2785
I2868
sV3605
p2786
I2867
sV3604
p2787
I2866
sV3609
p2788
I2871
sV3608
p2789
I2870
sV3413
p2790
I2657
sV927
p2791
I3772
sV985
p2792
I3836
sV623
p2793
I3437
sV470
p2794
I3269
sV2950
p2795
I2144
sV2358
p2796
I1492
sV2359
p2797
I1493
sV2352
p2798
I1486
sV2353
p2799
I1487
sV2350
p2800
I1484
sV2351
p2801
I1485
sV2356
p2802
I1490
sV2357
p2803
I1491
sV2354
p2804
I1488
sV2355
p2805
I1489
sV1898
p2806
I987
sV1899
p2807
I988
sV3739
p2808
I3013
sV3738
p2809
I3012
sV1894
p2810
I983
sV1895
p2811
I984
sV1896
p2812
I985
sV1897
p2813
I986
sV1890
p2814
I979
sV1891
p2815
I980
sV1892
p2816
I981
sV1893
p2817
I982
sV2136
p2818
I1249
sV2137
p2819
I1250
sV2134
p2820
I1247
sV2135
p2821
I1248
sV2132
p2822
I1245
sV2133
p2823
I1246
sV2130
p2824
I1243
sV2131
p2825
I1244
sV951
p2826
I3799
sV950
p2827
I3798
sV953
p2828
I3801
sV952
p2829
I3800
sV955
p2830
I3803
sV954
p2831
I3802
sV2138
p2832
I1251
sV2139
p2833
I1252
sV477
p2834
I3276
sV2648
p2835
I1810
sV2649
p2836
I1811
sV2640
p2837
I1802
sV2641
p2838
I1803
sV2642
p2839
I1804
sV2643
p2840
I1805
sV2644
p2841
I1806
sV2645
p2842
I1807
sV2646
p2843
I1808
sV2647
p2844
I1809
sV474
p2845
I3273
sV854
p2846
I3691
sV3429
p2847
I2674
sV3428
p2848
I2673
sV3423
p2849
I2668
sV3422
p2850
I2667
sV3421
p2851
I2666
sV3420
p2852
I2665
sV3427
p2853
I2672
sV3426
p2854
I2671
sV3425
p2855
I2670
sV3424
p2856
I2669
sV2002
p2857
I1104
sV2003
p2858
I1105
sV2000
p2859
I1102
sV2001
p2860
I1103
sV2006
p2861
I1108
sV2007
p2862
I1109
sV2004
p2863
I1106
sV2005
p2864
I1107
sV2008
p2865
I1110
sV2009
p2866
I1111
sV719
p2867
I3542
sV506
p2868
I3309
sV937
p2869
I3783
sV3026
p2870
I2229
sV507
p2871
I3310
sV3557
p2872
I2815
sV3556
p2873
I2814
sV3555
p2874
I2813
sV3554
p2875
I2812
sV3553
p2876
I2811
sV3552
p2877
I2810
sV3551
p2878
I2809
sV3550
p2879
I2808
sV3559
p2880
I2816
sV667
p2881
I3484
sV666
p2882
I3483
sV717
p2883
I3540
sV919
p2884
I3763
sV504
p2885
I3307
sV665
p2886
I3482
sV918
p2887
I3762
sV2910
p2888
I2100
sV2911
p2889
I2101
sV1799
p2890
I880
sV1798
p2891
I879
sV2914
p2892
I2104
sV2915
p2893
I2105
sV2916
p2894
I2106
sV2917
p2895
I2107
sV1793
p2896
I874
sV1792
p2897
I873
sV1791
p2898
I872
sV1790
p2899
I871
sV1797
p2900
I878
sV1796
p2901
I877
sV1795
p2902
I876
sV1794
p2903
I875
sV3024
p2904
I2227
sV716
p2905
I3539
sV505
p2906
I3308
sV660
p2907
I3477
sV917
p2908
I3761
sV1069
p2909
I77
sV1068
p2910
I76
sV916
p2911
I3760
sV1061
p2912
I69
sV1060
p2913
I68
sV1063
p2914
I71
sV1062
p2915
I70
sV1065
p2916
I73
sV1064
p2917
I72
sV1067
p2918
I75
sV1066
p2919
I74
sV3023
p2920
I2226
sV1669
p2921
I737
sV1668
p2922
I736
sV1667
p2923
I735
sV1666
p2924
I734
sV1665
p2925
I733
sV1664
p2926
I732
sV1663
p2927
I731
sV1662
p2928
I730
sV1661
p2929
I729
sV1660
p2930
I728
sV1087
p2931
I97
sV1086
p2932
I96
sV1085
p2933
I95
sV1084
p2934
I94
sV1083
p2935
I93
sV1082
p2936
I92
sV1081
p2937
I91
sV1080
p2938
I90
sV599
p2939
I3409
sV598
p2940
I3408
sV1089
p2941
I99
sV1088
p2942
I98
sV3140
p2943
I2356
sV3022
p2944
I2225
sV3142
p2945
I2358
sV3143
p2946
I2359
sV2828
p2947
I2009
sV2829
p2948
I2010
sV3146
p2949
I2362
sV3147
p2950
I2363
sV2824
p2951
I2005
sV2825
p2952
I2006
sV2826
p2953
I2007
sV2827
p2954
I2008
sV2820
p2955
I2001
sV2821
p2956
I2002
sV2822
p2957
I2003
sV2823
p2958
I2004
sV3386
p2959
I2627
sV3387
p2960
I2628
sV3384
p2961
I2625
sV3385
p2962
I2626
sV3382
p2963
I2623
sV3383
p2964
I2624
sV3380
p2965
I2621
sV3381
p2966
I2622
sV3388
p2967
I2629
sV3389
p2968
I2630
sV713
p2969
I3536
sV1409
p2970
I450
sV1408
p2971
I449
sV1403
p2972
I444
sV1402
p2973
I443
sV1401
p2974
I442
sV1400
p2975
I441
sV1407
p2976
I448
sV1406
p2977
I447
sV1405
p2978
I446
sV1404
p2979
I445
sV692
p2980
I3512
sV449
p2981
I3245
sV448
p2982
I3244
sV1339
p2983
I372
sV1338
p2984
I371
sV693
p2985
I3513
sV1335
p2986
I368
sV1334
p2987
I367
sV1337
p2988
I370
sV1336
p2989
I369
sV1331
p2990
I364
sV1330
p2991
I363
sV1333
p2992
I366
sV1332
p2993
I365
sV65
p2994
I3465
sV691
p2995
I3511
sV696
p2996
I3516
sV697
p2997
I3517
sV3261
p2998
I2490
sV3201
p2999
I2424
sV38
p3000
I3079
sV694
p3001
I3514
sV3260
p3002
I2489
sV32
p3003
I2421
sV31
p3004
I2310
sV30
p3005
I2199
sV37
p3006
I2969
sV3263
p3007
I2492
sV35
p3008
I2752
sV34
p3009
I2642
sV1241
p3010
I265
sV1240
p3011
I264
sV1243
p3012
I267
sV1242
p3013
I266
sV1245
p3014
I269
sV1244
p3015
I268
sV1247
p3016
I271
sV1246
p3017
I270
sV1249
p3018
I273
sV1248
p3019
I272
sV3098
p3020
I2308
sV3099
p3021
I2309
sV3120
p3022
I2334
sV1539
p3023
I594
sV1538
p3024
I593
sV339
p3025
I2631
sV3267
p3026
I2496
sV335
p3027
I2587
sV334
p3028
I2576
sV337
p3029
I2609
sV3266
p3030
I2495
sV331
p3031
I2543
sV330
p3032
I2532
sV333
p3033
I2565
sV332
p3034
I2554
sV3125
p3035
I2339
sV3377
p3036
I2617
sV541
p3037
I3347
sV847
p3038
I3683
sV934
p3039
I3780
sV846
p3040
I3682
sV545
p3041
I3351
sV845
p3042
I3681
sV844
p3043
I3680
sV8
I3630
sV843
p3044
I3679
sV842
p3045
I3678
sV841
p3046
I3677
sV840
p3047
I3676
sV3375
p3048
I2615
sV1636
p3049
I701
sV3200
p3050
I2423
sV361
p3051
I2872
sV3638
p3052
I2901
sV3639
p3053
I2902
sV3636
p3054
I2899
sV3637
p3055
I2900
sV3634
p3056
I2897
sV3635
p3057
I2898
sV3632
p3058
I2895
sV3633
p3059
I2896
sV3630
p3060
I2893
sV3631
p3061
I2894
sV849
p3062
I3685
sV848
p3063
I3684
sV2345
p3064
I1478
sV2344
p3065
I1477
sV2347
p3066
I1480
sV2346
p3067
I1479
sV2341
p3068
I1474
sV2340
p3069
I1473
sV2343
p3070
I1476
sV2342
p3071
I1475
sV2349
p3072
I1482
sV2348
p3073
I1481
sV3253
p3074
I2481
sV3708
p3075
I2979
sV3709
p3076
I2980
sV1889
p3077
I977
sV1887
p3078
I976
sV1886
p3079
I975
sV1885
p3080
I974
sV1884
p3081
I973
sV1883
p3082
I972
sV1882
p3083
I971
sV1881
p3084
I970
sV1880
p3085
I969
sV2121
p3086
I1233
sV2120
p3087
I1232
sV2123
p3088
I1235
sV2122
p3089
I1234
sV2125
p3090
I1237
sV2124
p3091
I1236
sV2127
p3092
I1239
sV2126
p3093
I1238
sV2129
p3094
I1241
sV2128
p3095
I1240
sV944
p3096
I3791
sV945
p3097
I3792
sV942
p3098
I3789
sV943
p3099
I3790
sV940
p3100
I3787
sV941
p3101
I3788
sV569
p3102
I3376
sV2659
p3103
I1822
sV2658
p3104
I1821
sV642
p3105
I3457
sV565
p3106
I3372
sV2653
p3107
I1816
sV2652
p3108
I1815
sV2651
p3109
I1814
sV2650
p3110
I1813
sV2657
p3111
I1820
sV2656
p3112
I1819
sV2655
p3113
I1818
sV2654
p3114
I1817
sV133
p3115
I362
sV132
p3116
I351
sV131
p3117
I340
sV130
p3118
I329
sV137
p3119
I406
sV136
p3120
I395
sV135
p3121
I384
sV134
p3122
I373
sV139
p3123
I428
sV138
p3124
I417
sV3418
p3125
I2662
sV3419
p3126
I2663
sV410
p3127
I3203
sV2019
p3128
I1122
sV2018
p3129
I1121
sV2015
p3130
I1118
sV2014
p3131
I1117
sV2017
p3132
I1120
sV2016
p3133
I1119
sV2011
p3134
I1114
sV2010
p3135
I1113
sV2013
p3136
I1116
sV2012
p3137
I1115
sV402
p3138
I3194
sV3562
p3139
I2820
sV3563
p3140
I2821
sV3560
p3141
I2818
sV3561
p3142
I2819
sV3566
p3143
I2824
sV3567
p3144
I2825
sV3564
p3145
I2822
sV3565
p3146
I2823
sV3034
p3147
I2238
sV3568
p3148
I2826
sV3569
p3149
I2827
sV2903
p3150
I2092
sV2902
p3151
I2091
sV2901
p3152
I2090
sV2900
p3153
I2089
sV2907
p3154
I2096
sV2906
p3155
I2095
sV2905
p3156
I2094
sV2904
p3157
I2093
sV704
p3158
I3526
sV705
p3159
I3527
sV2909
p3160
I2098
sV2908
p3161
I2097
sV700
p3162
I3522
sV701
p3163
I3523
sV702
p3164
I3524
sV703
p3165
I3525
sV88
p3166
I3719
sV89
p3167
I3730
sV82
p3168
I3653
sV83
p3169
I3664
sV80
p3170
I3631
sV81
p3171
I3642
sV86
p3172
I3697
sV87
p3173
I3708
sV84
p3174
I3675
sV85
p3175
I3686
sV762
p3176
I3590
sV1658
p3177
I725
sV1659
p3178
I726
sV601
p3179
I3413
sV1652
p3180
I719
sV1653
p3181
I720
sV1650
p3182
I717
sV1651
p3183
I718
sV1656
p3184
I723
sV1657
p3185
I724
sV1654
p3186
I721
sV1655
p3187
I722
sV586
p3188
I3395
sV1630
p3189
I695
sV584
p3190
I3393
sV585
p3191
I3394
sV582
p3192
I3391
sV583
p3193
I3392
sV580
p3194
I3389
sV1631
p3195
I696
sV1632
p3196
I697
sV588
p3197
I3397
sV589
p3198
I3398
sV3153
p3199
I2370
sV3152
p3200
I2369
sV3151
p3201
I2368
sV1633
p3202
I698
sV3157
p3203
I2374
sV3156
p3204
I2373
sV2839
p3205
I2021
sV2838
p3206
I2020
sV2837
p3207
I2019
sV1634
p3208
I699
sV2835
p3209
I2017
sV2834
p3210
I2016
sV2833
p3211
I2015
sV2832
p3212
I2014
sV2831
p3213
I2013
sV1635
p3214
I700
sV1436
p3215
I480
sV1437
p3216
I481
sV1434
p3217
I478
sV1435
p3218
I479
sV1432
p3219
I476
sV1433
p3220
I477
sV1430
p3221
I474
sV1431
p3222
I475
sV3399
p3223
I2641
sV3398
p3224
I2640
sV1637
p3225
I702
sV1438
p3226
I482
sV1439
p3227
I483
sV59
p3228
I3399
sV1348
p3229
I382
sV1349
p3230
I383
sV514
p3231
I3317
sV1340
p3232
I374
sV1341
p3233
I375
sV1342
p3234
I376
sV1343
p3235
I377
sV1344
p3236
I378
sV1345
p3237
I379
sV1346
p3238
I380
sV1347
p3239
I381
sV3702
p3240
I2973
sV3703
p3241
I2974
sV564
p3242
I3371
sV3700
p3243
I2971
sV766
p3244
I3594
sV3701
p3245
I2972
sV79
p3246
I3619
sV3368
p3247
I2607
sV3706
p3248
I2977
sV832
p3249
I3667
sV3707
p3250
I2978
sV1502
p3251
I554
sV1503
p3252
I555
sV1500
p3253
I552
sV1501
p3254
I553
sV1506
p3255
I558
sV1507
p3256
I559
sV1504
p3257
I556
sV1505
p3258
I557
sV3085
p3259
I2294
sV3084
p3260
I2293
sV1508
p3261
I560
sV1509
p3262
I561
sV3081
p3263
I2290
sV3080
p3264
I2289
sV3083
p3265
I2292
sV3082
p3266
I2291
sV833
p3267
I3668
sV1992
p3268
I1091
sV3884
p3269
I3173
sV3887
p3270
I3176
sV3886
p3271
I3175
sV3881
p3272
I3170
sV3880
p3273
I3169
sV3883
p3274
I3172
sV3882
p3275
I3171
sV949
p3276
I3796
sV3889
p3277
I3178
sV3888
p3278
I3177
sV946
p3279
I3793
sV947
p3280
I3794
sV568
p3281
I3375
sV495
p3282
I3296
sV831
p3283
I3666
sV54
p3284
I3345
sV57
p3285
I3377
sV754
p3286
I3581
sV322
p3287
I2444
sV323
p3288
I2455
sV320
p3289
I2422
sV321
p3290
I2433
sV326
p3291
I2488
sV327
p3292
I2499
sV324
p3293
I2466
sV325
p3294
I2477
sV328
p3295
I2510
sV329
p3296
I2521
sV3365
p3297
I2604
sV3629
p3298
I2892
sV3628
p3299
I2891
sV56
p3300
I3366
sV3621
p3301
I2884
sV3620
p3302
I2883
sV3623
p3303
I2886
sV3622
p3304
I2885
sV3625
p3305
I2888
sV3624
p3306
I2887
sV3627
p3307
I2890
sV3626
p3308
I2889
sV2330
p3309
I1462
sV2331
p3310
I1463
sV2332
p3311
I1464
sV2333
p3312
I1465
sV2334
p3313
I1466
sV2335
p3314
I1467
sV2336
p3315
I1468
sV2337
p3316
I1469
sV2338
p3317
I1470
sV2339
p3318
I1471
sV3072
p3319
I2280
sV3073
p3320
I2281
sV1995
p3321
I1094
sV3074
p3322
I2282
sV835
p3323
I3670
sV2959
p3324
I2153
sV3715
p3325
I2987
sV3714
p3326
I2986
sV3717
p3327
I2989
sV3716
p3328
I2988
sV3711
p3329
I2983
sV3076
p3330
I2284
sV3713
p3331
I2985
sV3712
p3332
I2984
sV3077
p3333
I2285
sV3719
p3334
I2991
sV3718
p3335
I2990
sV3078
p3336
I2286
sV3079
p3337
I2287
sV53
p3338
I3334
sV2488
p3339
I1635
sV2489
p3340
I1636
sV2486
p3341
I1633
sV2487
p3342
I1634
sV2484
p3343
I1631
sV2485
p3344
I1632
sV2482
p3345
I1629
sV2483
p3346
I1630
sV2480
p3347
I1627
sV2481
p3348
I1628
sV3252
p3349
I2480
sV2248
p3350
I1372
sV2249
p3351
I1373
sV2244
p3352
I1368
sV2245
p3353
I1369
sV2246
p3354
I1370
sV2247
p3355
I1371
sV2240
p3356
I1364
sV2241
p3357
I1365
sV2242
p3358
I1366
sV2243
p3359
I1367
sV2464
p3360
I1609
sV2465
p3361
I1610
sV2466
p3362
I1611
sV2467
p3363
I1612
sV2460
p3364
I1605
sV2461
p3365
I1606
sV2462
p3366
I1607
sV2463
p3367
I1608
sV369
p3368
I2958
sV2468
p3369
I1613
sV2469
p3370
I1614
sV120
p3371
I220
sV121
p3372
I231
sV122
p3373
I241
sV123
p3374
I252
sV124
p3375
I263
sV125
p3376
I274
sV126
p3377
I285
sV127
p3378
I296
sV128
p3379
I306
sV129
p3380
I317
sV3416
p3381
I2660
sV520
p3382
I3324
sV3379
p3383
I2619
sV3417
p3384
I2661
sV3378
p3385
I2618
sV3414
p3386
I2658
sV2068
p3387
I1174
sV2069
p3388
I1175
sV2798
p3389
I1975
sV2799
p3390
I1976
sV3376
p3391
I2616
sV2060
p3392
I1166
sV2061
p3393
I1167
sV2062
p3394
I1168
sV2063
p3395
I1169
sV2064
p3396
I1170
sV2065
p3397
I1171
sV2066
p3398
I1172
sV2067
p3399
I1173
sV521
p3400
I3325
sV3374
p3401
I2614
sV3410
p3402
I2654
sV3373
p3403
I2613
sV3411
p3404
I2655
sV3255
p3405
I2483
sV3372
p3406
I2612
sV3371
p3407
I2611
sV3370
p3408
I2610
sV3579
p3409
I2837
sV3578
p3410
I2836
sV3575
p3411
I2833
sV3574
p3412
I2832
sV3577
p3413
I2835
sV3576
p3414
I2834
sV3571
p3415
I2829
sV3570
p3416
I2828
sV3573
p3417
I2831
sV3572
p3418
I2830
sV2666
p3419
I1830
sV2667
p3420
I1831
sV2664
p3421
I1828
sV2665
p3422
I1829
sV2662
p3423
I1826
sV2663
p3424
I1827
sV2660
p3425
I1824
sV2661
p3426
I1825
sV722
p3427
I3546
sV2668
p3428
I1832
sV2669
p3429
I1833
sV2938
p3430
I2130
sV2939
p3431
I2131
sV2936
p3432
I2128
sV2937
p3433
I2129
sV2934
p3434
I2126
sV2935
p3435
I2127
sV2932
p3436
I2124
sV2933
p3437
I2125
sV2930
p3438
I2122
sV2931
p3439
I2123
sV948
p3440
I3795
sV3799
p3441
I3078
sV3595
p3442
I2855
sV1645
p3443
I711
sV1644
p3444
I710
sV1647
p3445
I713
sV1646
p3446
I712
sV1641
p3447
I707
sV1640
p3448
I706
sV1643
p3449
I709
sV1642
p3450
I708
sV1649
p3451
I715
sV1648
p3452
I714
sV728
p3453
I3552
sV3794
p3454
I3073
sV792
p3455
I3622
sV729
p3456
I3553
sV3797
p3457
I3076
sV579
p3458
I3387
sV3796
p3459
I3075
sV573
p3460
I3381
sV572
p3461
I3380
sV571
p3462
I3379
sV570
p3463
I3378
sV577
p3464
I3385
sV576
p3465
I3384
sV575
p3466
I3383
sV574
p3467
I3382
sV2808
p3468
I1987
sV2809
p3469
I1988
sV3793
p3470
I3072
sV3168
p3471
I2386
sV3169
p3472
I2387
sV2802
p3473
I1981
sV2803
p3474
I1982
sV2800
p3475
I1979
sV2801
p3476
I1980
sV2806
p3477
I1985
sV2807
p3478
I1986
sV2804
p3479
I1983
sV2805
p3480
I1984
sV1421
p3481
I464
sV1420
p3482
I463
sV1997
p3483
I1096
sV1422
p3484
I465
sV1425
p3485
I468
sV1424
p3486
I467
sV1427
p3487
I470
sV1426
p3488
I469
sV1429
p3489
I472
sV1428
p3490
I471
sV3366
p3491
I2605
sV3367
p3492
I2606
sV3360
p3493
I2599
sV2404
p3494
I1544
sV3362
p3495
I2601
sV3363
p3496
I2602
sV731
p3497
I3556
sV730
p3498
I3555
sV733
p3499
I3558
sV2405
p3500
I1545
sV735
p3501
I3560
sV734
p3502
I3559
sV737
p3503
I3562
sV736
p3504
I3561
sV739
p3505
I3564
sV2402
p3506
I1542
sV2403
p3507
I1543
sV1359
p3508
I394
sV1358
p3509
I393
sV469
p3510
I3267
sV2400
p3511
I1540
sV1353
p3512
I388
sV1352
p3513
I387
sV1351
p3514
I386
sV1350
p3515
I385
sV1357
p3516
I392
sV1356
p3517
I391
sV1355
p3518
I390
sV1354
p3519
I389
sV3224
p3520
I2449
sV936
p3521
I3782
sV1519
p3522
I572
sV1518
p3523
I571
sV3392
p3524
I2634
sV1515
p3525
I568
sV1514
p3526
I567
sV1517
p3527
I570
sV1516
p3528
I569
sV1511
p3529
I564
sV1510
p3530
I563
sV1513
p3531
I566
sV1512
p3532
I565
sV3439
p3533
I2685
sV280
p3534
I1978
sV3184
p3535
I2404
sV3185
p3536
I2405
sV3186
p3537
I2406
sV3187
p3538
I2407
sV3180
p3539
I2400
sV3181
p3540
I2401
sV3182
p3541
I2402
sV3183
p3542
I2403
sV3188
p3543
I2408
sV3189
p3544
I2409
sV3397
p3545
I2639
sV617
p3546
I3430
sV49
p3547
I3290
sV3396
p3548
I2638
sV356
p3549
I2817
sV355
p3550
I2807
sV354
p3551
I2797
sV353
p3552
I2786
sV352
p3553
I2775
sV351
p3554
I2764
sV350
p3555
I2753
sV359
p3556
I2849
sV358
p3557
I2838
sV3612
p3558
I2875
sV43
p3559
I3224
sV3613
p3560
I2876
sV2323
p3561
I1454
sV1111
p3562
I124
sV2321
p3563
I1452
sV2320
p3564
I1451
sV2327
p3565
I1458
sV2326
p3566
I1457
sV2325
p3567
I1456
sV1110
p3568
I123
sV2329
p3569
I1460
sV2328
p3570
I1459
sV1445
p3571
I490
sV484
p3572
I3284
sV289
p3573
I2076
sV288
p3574
I2065
sV1444
p3575
I489
sV3619
p3576
I2882
sV281
p3577
I1989
sV1115
p3578
I128
sV283
p3579
I2011
sV282
p3580
I2000
sV285
p3581
I2033
sV284
p3582
I2022
sV287
p3583
I2054
sV1114
p3584
I127
sV3760
p3585
I3037
sV3761
p3586
I3038
sV3762
p3587
I3039
sV3763
p3588
I3040
sV3764
p3589
I3041
sV1441
p3590
I486
sV3766
p3591
I3043
sV3767
p3592
I3044
sV3768
p3593
I3045
sV1116
p3594
I129
sV263
p3595
I1790
sV1292
p3596
I320
sV261
p3597
I1768
sV260
p3598
I1757
sV267
p3599
I1834
sV266
p3600
I1823
sV265
p3601
I1812
sV1293
p3602
I321
sV286
p3603
I2043
sV269
p3604
I1856
sV268
p3605
I1845
sV1290
p3606
I318
sV2499
p3607
I1646
sV2498
p3608
I1645
sV1563
p3609
I621
sV3225
p3610
I2450
sV2491
p3611
I1639
sV1296
p3612
I324
sV2493
p3613
I1641
sV2492
p3614
I1640
sV2495
p3615
I1643
sV2494
p3616
I1642
sV2497
p3617
I1644
sV1297
p3618
I325
sV259
p3619
I1745
sV1294
p3620
I322
sV2259
p3621
I1383
sV2258
p3622
I1382
sV2257
p3623
I1381
sV2256
p3624
I1380
sV2255
p3625
I1379
sV1295
p3626
I323
sV2253
p3627
I1377
sV2252
p3628
I1376
sV2251
p3629
I1375
sV2477
p3630
I1623
sV2476
p3631
I1622
sV2475
p3632
I1621
sV2474
p3633
I1620
sV2473
p3634
I1619
sV2472
p3635
I1618
sV2471
p3636
I1617
sV2470
p3637
I1616
sV982
p3638
I3833
sV957
p3639
I3805
sV980
p3640
I3831
sV981
p3641
I3832
sV986
p3642
I3837
sV987
p3643
I3838
sV2479
p3644
I1625
sV2478
p3645
I1624
sV115
p3646
I166
sV114
p3647
I155
sV116
p3648
I177
sV111
p3649
I122
sV110
p3650
I111
sV113
p3651
I144
sV112
p3652
I133
sV119
p3653
I208
sV118
p3654
I197
sV2785
p3655
I1961
sV2784
p3656
I1960
sV2787
p3657
I1963
sV2786
p3658
I1962
sV2781
p3659
I1957
sV2780
p3660
I1956
sV2783
p3661
I1959
sV2782
p3662
I1958
sV2789
p3663
I1965
sV2788
p3664
I1964
sV2079
p3665
I1186
sV2078
p3666
I1185
sV2073
p3667
I1180
sV2072
p3668
I1179
sV2071
p3669
I1178
sV2070
p3670
I1177
sV2077
p3671
I1184
sV2076
p3672
I1183
sV2075
p3673
I1182
sV2074
p3674
I1181
sV3221
p3675
I2446
sV3508
p3676
I2762
sV3509
p3677
I2763
sV3500
p3678
I2754
sV3501
p3679
I2755
sV3502
p3680
I2756
sV3503
p3681
I2757
sV3504
p3682
I2758
sV3505
p3683
I2759
sV3506
p3684
I2760
sV3507
p3685
I2761
sV2671
p3686
I1836
sV2670
p3687
I1835
sV2673
p3688
I1838
sV2672
p3689
I1837
sV2675
p3690
I1840
sV2674
p3691
I1839
sV2677
p3692
I1842
sV2676
p3693
I1841
sV2679
p3694
I1844
sV2678
p3695
I1843
sV3220
p3696
I2445
sV52
p3697
I3323
sV2929
p3698
I2120
sV2928
p3699
I2119
sV2921
p3700
I2112
sV2920
p3701
I2111
sV2923
p3702
I2114
sV2922
p3703
I2113
sV2925
p3704
I2116
sV2924
p3705
I2115
sV2927
p3706
I2118
sV2926
p3707
I2117
sV487
p3708
I3287
sV3223
p3709
I2448
sV709
p3710
I3531
sV1986
p3711
I1084
sV1987
p3712
I1085
sV1984
p3713
I1082
sV1985
p3714
I1083
sV1982
p3715
I1080
sV1983
p3716
I1081
sV1980
p3717
I1078
sV1981
p3718
I1079
sV1638
p3719
I703
sV1639
p3720
I704
sV530
p3721
I3335
sV3218
p3722
I2442
sV3219
p3723
I2443
sV1988
p3724
I1086
sV1989
p3725
I1087
sV3222
p3726
I2447
sV587
p3727
I3396
sV706
p3728
I3528
sV2815
p3729
I1995
sV2814
p3730
I1994
sV2817
p3731
I1997
sV2816
p3732
I1996
sV2811
p3733
I1991
sV2810
p3734
I1990
sV2813
p3735
I1993
sV2812
p3736
I1992
sV560
p3737
I3367
sV561
p3738
I3368
sV562
p3739
I3369
sV563
p3740
I3370
sV2819
p3741
I1999
sV2818
p3742
I1998
sV566
p3743
I3373
sV567
p3744
I3374
sV3179
p3745
I2398
sV3178
p3746
I2397
sV3171
p3747
I2390
sV3170
p3748
I2389
sV3173
p3749
I2392
sV3172
p3750
I2391
sV3175
p3751
I2394
sV3174
p3752
I2393
sV3177
p3753
I2396
sV3176
p3754
I2395
sV659
p3755
I3475
sV1188
p3756
I206
sV1189
p3757
I207
sV1186
p3758
I204
sV1187
p3759
I205
sV1184
p3760
I202
sV1185
p3761
I203
sV1182
p3762
I200
sV1183
p3763
I201
sV1180
p3764
I198
sV1181
p3765
I199
sV726
p3766
I3550
sV727
p3767
I3551
sV724
p3768
I3548
sV725
p3769
I3549
sV1748
p3770
I824
sV1749
p3771
I825
sV720
p3772
I3544
sV721
p3773
I3545
sV1744
p3774
I820
sV1745
p3775
I821
sV1746
p3776
I822
sV1747
p3777
I823
sV1740
p3778
I816
sV1741
p3779
I817
sV1742
p3780
I818
sV1743
p3781
I819
sV1164
p3782
I182
sV1165
p3783
I183
sV1166
p3784
I184
sV1167
p3785
I185
sV1160
p3786
I178
sV1161
p3787
I179
sV1162
p3788
I180
sV1163
p3789
I181
sV3309
p3790
I2542
sV1168
p3791
I186
sV1169
p3792
I187
sV3092
p3793
I2302
sV3304
p3794
I2537
sV3197
p3795
I2418
sV3305
p3796
I2538
sV48
p3797
I3279
sV3196
p3798
I2417
sV46
p3799
I3257
sV47
p3800
I3268
sV44
p3801
I3235
sV45
p3802
I3246
sV42
p3803
I3213
sV3195
p3804
I2416
sV40
p3805
I3191
sV41
p3806
I3202
sV1568
p3807
I626
sV1569
p3808
I627
sV1298
p3809
I326
sV1299
p3810
I327
sV1560
p3811
I618
sV1561
p3812
I619
sV1562
p3813
I620
sV1291
p3814
I319
sV1564
p3815
I622
sV1565
p3816
I623
sV1566
p3817
I624
sV1567
p3818
I625
sV797
p3819
I3627
sV3191
p3820
I2412
sV796
p3821
I3626
sV591
p3822
I3401
sV3190
p3823
I2411
sV795
p3824
I3625
sV794
p3825
I3624
sV793
p3826
I3623
sV3698
p3827
I2967
sV479
p3828
I3278
sV791
p3829
I3621
sV590
p3830
I3400
sV790
p3831
I3620
sV1366
p3832
I402
sV1367
p3833
I403
sV1364
p3834
I400
sV1365
p3835
I401
sV1362
p3836
I398
sV1363
p3837
I399
sV1360
p3838
I396
sV1361
p3839
I397
sV3728
p3840
I3001
sV478
p3841
I3277
sV3198
p3842
I2419
sV3699
p3843
I2968
sV1368
p3844
I404
sV1369
p3845
I405
ssS'num_neg_train_edges'
p3846
I19349
sS'num_neg_test_edges'
p3847
I19356
sS'original_num_nodes'
p3848
I3890
sS'largest_cc_num_nodes'
p3849
I3852
sS'num_pos_test_edges'
p3850
I19356
sS'num_pos_train_edges'
p3851
I19349
s.